
interp.bd.o:     file format elf64-x86-64


Disassembly of section .text.ht_set_entry:

0000000000000000 <ht_set_entry>:
   0:	48 85 d2             	test   %rdx,%rdx
   3:	0f 84 8b 00 00 00    	je     94 <ht_set_entry+0x94>
   9:	48 89 d0             	mov    %rdx,%rax
   c:	49 89 d1             	mov    %rdx,%r9
   f:	49 89 ca             	mov    %rcx,%r10
  12:	48 89 d1             	mov    %rdx,%rcx
  15:	48 c1 e0 07          	shl    $0x7,%rax
  19:	48 c1 e1 39          	shl    $0x39,%rcx
  1d:	48 01 d0             	add    %rdx,%rax
  20:	48 c1 e2 3f          	shl    $0x3f,%rdx
  24:	48 c1 e0 36          	shl    $0x36,%rax
  28:	48 01 d0             	add    %rdx,%rax
  2b:	4c 89 ca             	mov    %r9,%rdx
  2e:	48 c1 e2 12          	shl    $0x12,%rdx
  32:	4c 01 c8             	add    %r9,%rax
  35:	48 29 d0             	sub    %rdx,%rax
  38:	4c 89 ca             	mov    %r9,%rdx
  3b:	48 c1 e2 33          	shl    $0x33,%rdx
  3f:	48 29 d0             	sub    %rdx,%rax
  42:	48 8d 56 ff          	lea    -0x1(%rsi),%rdx
  46:	48 29 c8             	sub    %rcx,%rax
  49:	48 21 c2             	and    %rax,%rdx
  4c:	48 89 d0             	mov    %rdx,%rax
  4f:	48 c1 e0 04          	shl    $0x4,%rax
  53:	48 01 f8             	add    %rdi,%rax
  56:	eb 1a                	jmp    72 <ht_set_entry+0x72>
  58:	0f 1f 84 00 00 00 00 	nopl   0x0(%rax,%rax,1)
  5f:	00 
  60:	4c 39 c9             	cmp    %r9,%rcx
  63:	74 21                	je     86 <ht_set_entry+0x86>
  65:	48 83 c2 01          	add    $0x1,%rdx
  69:	48 83 c0 10          	add    $0x10,%rax
  6d:	48 39 d6             	cmp    %rdx,%rsi
  70:	76 1e                	jbe    90 <ht_set_entry+0x90>
  72:	48 8b 08             	mov    (%rax),%rcx
  75:	48 85 c9             	test   %rcx,%rcx
  78:	75 e6                	jne    60 <ht_set_entry+0x60>
  7a:	4d 85 c0             	test   %r8,%r8
  7d:	74 04                	je     83 <ht_set_entry+0x83>
  7f:	49 83 00 01          	addq   $0x1,(%r8)
  83:	4c 89 08             	mov    %r9,(%rax)
  86:	4c 89 50 08          	mov    %r10,0x8(%rax)
  8a:	4c 89 c8             	mov    %r9,%rax
  8d:	c3                   	ret    
  8e:	66 90                	xchg   %ax,%ax
  90:	31 d2                	xor    %edx,%edx
  92:	eb b8                	jmp    4c <ht_set_entry+0x4c>
  94:	50                   	push   %rax
  95:	48 8b 3d 00 00 00 00 	mov    0x0(%rip),%rdi        # 9c <ht_set_entry+0x9c>
  9c:	be 01 00 00 00       	mov    $0x1,%esi
  a1:	31 c0                	xor    %eax,%eax
  a3:	48 8d 0d 00 00 00 00 	lea    0x0(%rip),%rcx        # aa <ht_set_entry+0xaa>
  aa:	48 8d 15 00 00 00 00 	lea    0x0(%rip),%rdx        # b1 <ht_set_entry+0xb1>
  b1:	e8 00 00 00 00       	call   b6 <ht_set_entry+0xb6>
  b6:	bf 01 00 00 00       	mov    $0x1,%edi
  bb:	e8 00 00 00 00       	call   c0 <.LC29+0x9>

Disassembly of section .text.func_stack_pop.isra.0:

0000000000000000 <func_stack_pop.isra.0>:
   0:	48 8b 47 08          	mov    0x8(%rdi),%rax
   4:	48 85 c0             	test   %rax,%rax
   7:	74 17                	je     20 <func_stack_pop.isra.0+0x20>
   9:	48 83 e8 01          	sub    $0x1,%rax
   d:	48 83 6f 18 08       	subq   $0x8,0x18(%rdi)
  12:	48 83 6f 20 01       	subq   $0x1,0x20(%rdi)
  17:	48 89 47 08          	mov    %rax,0x8(%rdi)
  1b:	c3                   	ret    
  1c:	0f 1f 40 00          	nopl   0x0(%rax)
  20:	48 8b 0d 00 00 00 00 	mov    0x0(%rip),%rcx        # 27 <func_stack_pop.isra.0+0x27>
  27:	ba 1b 00 00 00       	mov    $0x1b,%edx
  2c:	be 01 00 00 00       	mov    $0x1,%esi
  31:	48 8d 3d 00 00 00 00 	lea    0x0(%rip),%rdi        # 38 <func_stack_pop.isra.0+0x38>
  38:	e9 00 00 00 00       	jmp    3d <.LC2+0x5>

Disassembly of section .text.func_stack_push.isra.0:

0000000000000000 <func_stack_push.isra.0>:
   0:	48 8b 47 20          	mov    0x20(%rdi),%rax
   4:	48 3b 47 10          	cmp    0x10(%rdi),%rax
   8:	74 1a                	je     24 <func_stack_push.isra.0+0x24>
   a:	48 8b 17             	mov    (%rdi),%rdx
   d:	48 8d 48 01          	lea    0x1(%rax),%rcx
  11:	48 89 4f 20          	mov    %rcx,0x20(%rdi)
  15:	48 89 34 c2          	mov    %rsi,(%rdx,%rax,8)
  19:	48 83 47 08 01       	addq   $0x1,0x8(%rdi)
  1e:	48 83 47 18 08       	addq   $0x8,0x18(%rdi)
  23:	c3                   	ret    
  24:	48 8b 3d 00 00 00 00 	mov    0x0(%rip),%rdi        # 2b <func_stack_push.isra.0+0x2b>
  2b:	48 8d 0d 00 00 00 00 	lea    0x0(%rip),%rcx        # 32 <func_stack_push.isra.0+0x32>
  32:	48 8d 15 00 00 00 00 	lea    0x0(%rip),%rdx        # 39 <func_stack_push.isra.0+0x39>
  39:	31 c0                	xor    %eax,%eax
  3b:	be 01 00 00 00       	mov    $0x1,%esi
  40:	e9 00 00 00 00       	jmp    45 <.LC17>

Disassembly of section .text.ht_create:

0000000000000000 <ht_create>:
   0:	f3 0f 1e fa          	endbr64 
   4:	41 54                	push   %r12
   6:	bf 18 00 00 00       	mov    $0x18,%edi
   b:	e8 00 00 00 00       	call   10 <ht_create+0x10>
  10:	49 89 c4             	mov    %rax,%r12
  13:	48 85 c0             	test   %rax,%rax
  16:	74 28                	je     40 <ht_create+0x40>
  18:	48 c7 40 10 00 00 00 	movq   $0x0,0x10(%rax)
  1f:	00 
  20:	be 10 00 00 00       	mov    $0x10,%esi
  25:	bf 10 00 00 00       	mov    $0x10,%edi
  2a:	48 c7 40 08 10 00 00 	movq   $0x10,0x8(%rax)
  31:	00 
  32:	e8 00 00 00 00       	call   37 <ht_create+0x37>
  37:	49 89 04 24          	mov    %rax,(%r12)
  3b:	48 85 c0             	test   %rax,%rax
  3e:	74 06                	je     46 <ht_create+0x46>
  40:	4c 89 e0             	mov    %r12,%rax
  43:	41 5c                	pop    %r12
  45:	c3                   	ret    
  46:	4c 89 e7             	mov    %r12,%rdi
  49:	45 31 e4             	xor    %r12d,%r12d
  4c:	e8 00 00 00 00       	call   51 <ht_create+0x51>
  51:	eb ed                	jmp    40 <ht_create+0x40>

Disassembly of section .text.ht_destroy:

0000000000000000 <ht_destroy>:
   0:	f3 0f 1e fa          	endbr64 
   4:	55                   	push   %rbp
   5:	48 89 fd             	mov    %rdi,%rbp
   8:	48 8b 3f             	mov    (%rdi),%rdi
   b:	e8 00 00 00 00       	call   10 <ht_destroy+0x10>
  10:	48 89 ef             	mov    %rbp,%rdi
  13:	5d                   	pop    %rbp
  14:	e9 00 00 00 00       	jmp    19 <ht_destroy+0x19>

Disassembly of section .text.ht_get:

0000000000000000 <ht_get>:
   0:	f3 0f 1e fa          	endbr64 
   4:	48 89 f2             	mov    %rsi,%rdx
   7:	48 89 f0             	mov    %rsi,%rax
   a:	49 89 f0             	mov    %rsi,%r8
   d:	48 89 f1             	mov    %rsi,%rcx
  10:	48 c1 e2 07          	shl    $0x7,%rdx
  14:	48 c1 e0 3f          	shl    $0x3f,%rax
  18:	48 01 f2             	add    %rsi,%rdx
  1b:	49 c1 e0 39          	shl    $0x39,%r8
  1f:	48 c1 e2 36          	shl    $0x36,%rdx
  23:	48 01 d0             	add    %rdx,%rax
  26:	48 89 f2             	mov    %rsi,%rdx
  29:	48 01 f0             	add    %rsi,%rax
  2c:	48 c1 e2 12          	shl    $0x12,%rdx
  30:	48 29 d0             	sub    %rdx,%rax
  33:	48 89 f2             	mov    %rsi,%rdx
  36:	48 8b 77 08          	mov    0x8(%rdi),%rsi
  3a:	48 8b 3f             	mov    (%rdi),%rdi
  3d:	48 c1 e2 33          	shl    $0x33,%rdx
  41:	48 29 d0             	sub    %rdx,%rax
  44:	48 8d 56 ff          	lea    -0x1(%rsi),%rdx
  48:	4c 29 c0             	sub    %r8,%rax
  4b:	48 21 c2             	and    %rax,%rdx
  4e:	48 89 d0             	mov    %rdx,%rax
  51:	48 c1 e0 04          	shl    $0x4,%rax
  55:	48 01 f8             	add    %rdi,%rax
  58:	eb 18                	jmp    72 <ht_get+0x72>
  5a:	66 0f 1f 44 00 00    	nopw   0x0(%rax,%rax,1)
  60:	49 39 c8             	cmp    %rcx,%r8
  63:	74 1b                	je     80 <ht_get+0x80>
  65:	48 83 c2 01          	add    $0x1,%rdx
  69:	48 83 c0 10          	add    $0x10,%rax
  6d:	48 39 d6             	cmp    %rdx,%rsi
  70:	76 1e                	jbe    90 <ht_get+0x90>
  72:	4c 8b 00             	mov    (%rax),%r8
  75:	4d 85 c0             	test   %r8,%r8
  78:	75 e6                	jne    60 <ht_get+0x60>
  7a:	4c 89 c0             	mov    %r8,%rax
  7d:	c3                   	ret    
  7e:	66 90                	xchg   %ax,%ax
  80:	4c 8b 40 08          	mov    0x8(%rax),%r8
  84:	4c 89 c0             	mov    %r8,%rax
  87:	c3                   	ret    
  88:	0f 1f 84 00 00 00 00 	nopl   0x0(%rax,%rax,1)
  8f:	00 
  90:	31 d2                	xor    %edx,%edx
  92:	eb ba                	jmp    4e <ht_get+0x4e>

Disassembly of section .text.ht_set:

0000000000000000 <ht_set>:
   0:	f3 0f 1e fa          	endbr64 
   4:	41 57                	push   %r15
   6:	41 56                	push   %r14
   8:	41 55                	push   %r13
   a:	41 54                	push   %r12
   c:	55                   	push   %rbp
   d:	53                   	push   %rbx
   e:	48 83 ec 18          	sub    $0x18,%rsp
  12:	48 85 d2             	test   %rdx,%rdx
  15:	0f 84 28 01 00 00    	je     143 <ht_set+0x143>
  1b:	49 89 f4             	mov    %rsi,%r12
  1e:	48 85 f6             	test   %rsi,%rsi
  21:	0f 84 3b 01 00 00    	je     162 <ht_set+0x162>
  27:	4c 8b 4f 08          	mov    0x8(%rdi),%r9
  2b:	48 89 fb             	mov    %rdi,%rbx
  2e:	49 89 d5             	mov    %rdx,%r13
  31:	4c 89 c8             	mov    %r9,%rax
  34:	48 d1 e8             	shr    %rax
  37:	48 39 47 10          	cmp    %rax,0x10(%rdi)
  3b:	0f 82 87 00 00 00    	jb     c8 <ht_set+0xc8>
  41:	4f 8d 3c 09          	lea    (%r9,%r9,1),%r15
  45:	4d 39 f9             	cmp    %r15,%r9
  48:	0f 87 a2 00 00 00    	ja     f0 <ht_set+0xf0>
  4e:	be 10 00 00 00       	mov    $0x10,%esi
  53:	4c 89 ff             	mov    %r15,%rdi
  56:	4c 89 4c 24 08       	mov    %r9,0x8(%rsp)
  5b:	e8 00 00 00 00       	call   60 <ht_set+0x60>
  60:	49 89 c6             	mov    %rax,%r14
  63:	48 85 c0             	test   %rax,%rax
  66:	0f 84 21 01 00 00    	je     18d <ht_set+0x18d>
  6c:	4c 8b 4c 24 08       	mov    0x8(%rsp),%r9
  71:	48 8b 3b             	mov    (%rbx),%rdi
  74:	31 ed                	xor    %ebp,%ebp
  76:	4d 85 c9             	test   %r9,%r9
  79:	74 36                	je     b1 <ht_set+0xb1>
  7b:	0f 1f 44 00 00       	nopl   0x0(%rax,%rax,1)
  80:	48 89 e8             	mov    %rbp,%rax
  83:	48 c1 e0 04          	shl    $0x4,%rax
  87:	48 01 f8             	add    %rdi,%rax
  8a:	48 8b 10             	mov    (%rax),%rdx
  8d:	48 85 d2             	test   %rdx,%rdx
  90:	74 15                	je     a7 <ht_set+0xa7>
  92:	48 8b 48 08          	mov    0x8(%rax),%rcx
  96:	4c 89 f7             	mov    %r14,%rdi
  99:	45 31 c0             	xor    %r8d,%r8d
  9c:	4c 89 fe             	mov    %r15,%rsi
  9f:	e8 00 00 00 00       	call   a4 <ht_set+0xa4>
  a4:	48 8b 3b             	mov    (%rbx),%rdi
  a7:	48 83 c5 01          	add    $0x1,%rbp
  ab:	48 3b 6b 08          	cmp    0x8(%rbx),%rbp
  af:	72 cf                	jb     80 <ht_set+0x80>
  b1:	e8 00 00 00 00       	call   b6 <ht_set+0xb6>
  b6:	4c 89 33             	mov    %r14,(%rbx)
  b9:	4d 89 f9             	mov    %r15,%r9
  bc:	4c 89 7b 08          	mov    %r15,0x8(%rbx)
  c0:	eb 09                	jmp    cb <ht_set+0xcb>
  c2:	66 0f 1f 44 00 00    	nopw   0x0(%rax,%rax,1)
  c8:	4c 8b 37             	mov    (%rdi),%r14
  cb:	48 83 c4 18          	add    $0x18,%rsp
  cf:	4c 8d 43 10          	lea    0x10(%rbx),%r8
  d3:	4c 89 e9             	mov    %r13,%rcx
  d6:	4c 89 e2             	mov    %r12,%rdx
  d9:	5b                   	pop    %rbx
  da:	4c 89 f7             	mov    %r14,%rdi
  dd:	5d                   	pop    %rbp
  de:	4c 89 ce             	mov    %r9,%rsi
  e1:	41 5c                	pop    %r12
  e3:	41 5d                	pop    %r13
  e5:	41 5e                	pop    %r14
  e7:	41 5f                	pop    %r15
  e9:	e9 00 00 00 00       	jmp    ee <ht_set+0xee>
  ee:	66 90                	xchg   %ax,%ax
  f0:	48 8b 3d 00 00 00 00 	mov    0x0(%rip),%rdi        # f7 <ht_set+0xf7>
  f7:	48 8d 0d 00 00 00 00 	lea    0x0(%rip),%rcx        # fe <ht_set+0xfe>
  fe:	48 8d 15 00 00 00 00 	lea    0x0(%rip),%rdx        # 105 <ht_set+0x105>
 105:	31 c0                	xor    %eax,%eax
 107:	be 01 00 00 00       	mov    $0x1,%esi
 10c:	e8 00 00 00 00       	call   111 <ht_set+0x111>
 111:	48 8b 3d 00 00 00 00 	mov    0x0(%rip),%rdi        # 118 <ht_set+0x118>
 118:	48 8d 0d 00 00 00 00 	lea    0x0(%rip),%rcx        # 11f <ht_set+0x11f>
 11f:	48 8d 15 00 00 00 00 	lea    0x0(%rip),%rdx        # 126 <ht_set+0x126>
 126:	31 c0                	xor    %eax,%eax
 128:	be 01 00 00 00       	mov    $0x1,%esi
 12d:	e8 00 00 00 00       	call   132 <ht_set+0x132>
 132:	48 83 c4 18          	add    $0x18,%rsp
 136:	31 c0                	xor    %eax,%eax
 138:	5b                   	pop    %rbx
 139:	5d                   	pop    %rbp
 13a:	41 5c                	pop    %r12
 13c:	41 5d                	pop    %r13
 13e:	41 5e                	pop    %r14
 140:	41 5f                	pop    %r15
 142:	c3                   	ret    
 143:	48 8d 0d 00 00 00 00 	lea    0x0(%rip),%rcx        # 14a <ht_set+0x14a>
 14a:	ba 3d 02 00 00       	mov    $0x23d,%edx
 14f:	48 8d 35 00 00 00 00 	lea    0x0(%rip),%rsi        # 156 <ht_set+0x156>
 156:	48 8d 3d 00 00 00 00 	lea    0x0(%rip),%rdi        # 15d <ht_set+0x15d>
 15d:	e8 00 00 00 00       	call   162 <ht_set+0x162>
 162:	48 8b 3d 00 00 00 00 	mov    0x0(%rip),%rdi        # 169 <ht_set+0x169>
 169:	48 8d 0d 00 00 00 00 	lea    0x0(%rip),%rcx        # 170 <ht_set+0x170>
 170:	48 8d 15 00 00 00 00 	lea    0x0(%rip),%rdx        # 177 <ht_set+0x177>
 177:	31 c0                	xor    %eax,%eax
 179:	be 01 00 00 00       	mov    $0x1,%esi
 17e:	e8 00 00 00 00       	call   183 <ht_set+0x183>
 183:	bf 01 00 00 00       	mov    $0x1,%edi
 188:	e8 00 00 00 00       	call   18d <ht_set+0x18d>
 18d:	48 8b 3d 00 00 00 00 	mov    0x0(%rip),%rdi        # 194 <ht_set+0x194>
 194:	48 8d 0d 00 00 00 00 	lea    0x0(%rip),%rcx        # 19b <ht_set+0x19b>
 19b:	48 8d 15 00 00 00 00 	lea    0x0(%rip),%rdx        # 1a2 <ht_set+0x1a2>
 1a2:	31 c0                	xor    %eax,%eax
 1a4:	be 01 00 00 00       	mov    $0x1,%esi
 1a9:	e8 00 00 00 00       	call   1ae <ht_set+0x1ae>
 1ae:	e9 5e ff ff ff       	jmp    111 <ht_set+0x111>

Disassembly of section .text.array_alloc_op_counts:

0000000000000000 <array_alloc_op_counts>:
   0:	41 54                	push   %r12
   2:	55                   	push   %rbp
   3:	48 89 fd             	mov    %rdi,%rbp
   6:	53                   	push   %rbx
   7:	48 83 7e 08 00       	cmpq   $0x0,0x8(%rsi)
   c:	74 6a                	je     78 <array_alloc_op_counts+0x78>
   e:	48 8b 56 20          	mov    0x20(%rsi),%rdx
  12:	48 8b 06             	mov    (%rsi),%rax
  15:	48 89 f3             	mov    %rsi,%rbx
  18:	4c 8b 64 d0 f8       	mov    -0x8(%rax,%rdx,8),%r12
  1d:	4d 85 e4             	test   %r12,%r12
  20:	0f 84 aa 00 00 00    	je     d0 <array_alloc_op_counts+0xd0>
  26:	4c 89 e6             	mov    %r12,%rsi
  29:	e8 00 00 00 00       	call   2e <array_alloc_op_counts+0x2e>
  2e:	48 85 c0             	test   %rax,%rax
  31:	74 0d                	je     40 <array_alloc_op_counts+0x40>
  33:	5b                   	pop    %rbx
  34:	5d                   	pop    %rbp
  35:	41 5c                	pop    %r12
  37:	c3                   	ret    
  38:	0f 1f 84 00 00 00 00 	nopl   0x0(%rax,%rax,1)
  3f:	00 
  40:	bf c8 04 00 00       	mov    $0x4c8,%edi
  45:	e8 00 00 00 00       	call   4a <array_alloc_op_counts+0x4a>
  4a:	48 89 c2             	mov    %rax,%rdx
  4d:	48 85 d2             	test   %rdx,%rdx
  50:	0f 84 cc 00 00 00    	je     122 <array_alloc_op_counts+0x122>
  56:	b9 99 00 00 00       	mov    $0x99,%ecx
  5b:	31 c0                	xor    %eax,%eax
  5d:	48 89 d7             	mov    %rdx,%rdi
  60:	4c 89 e6             	mov    %r12,%rsi
  63:	f3 48 ab             	rep stos %rax,%es:(%rdi)
  66:	48 89 ef             	mov    %rbp,%rdi
  69:	5b                   	pop    %rbx
  6a:	5d                   	pop    %rbp
  6b:	41 5c                	pop    %r12
  6d:	e9 00 00 00 00       	jmp    72 <array_alloc_op_counts+0x72>
  72:	66 0f 1f 44 00 00    	nopw   0x0(%rax,%rax,1)
  78:	48 8b 3d 00 00 00 00 	mov    0x0(%rip),%rdi        # 7f <array_alloc_op_counts+0x7f>
  7f:	be 01 00 00 00       	mov    $0x1,%esi
  84:	31 c0                	xor    %eax,%eax
  86:	48 8d 0d 00 00 00 00 	lea    0x0(%rip),%rcx        # 8d <array_alloc_op_counts+0x8d>
  8d:	48 8d 15 00 00 00 00 	lea    0x0(%rip),%rdx        # 94 <array_alloc_op_counts+0x94>
  94:	e8 00 00 00 00       	call   99 <array_alloc_op_counts+0x99>
  99:	31 f6                	xor    %esi,%esi
  9b:	48 89 ef             	mov    %rbp,%rdi
  9e:	e8 00 00 00 00       	call   a3 <array_alloc_op_counts+0xa3>
  a3:	48 85 c0             	test   %rax,%rax
  a6:	75 8b                	jne    33 <array_alloc_op_counts+0x33>
  a8:	48 8d 0d 00 00 00 00 	lea    0x0(%rip),%rcx        # af <array_alloc_op_counts+0xaf>
  af:	ba 7b 02 00 00       	mov    $0x27b,%edx
  b4:	48 8d 35 00 00 00 00 	lea    0x0(%rip),%rsi        # bb <array_alloc_op_counts+0xbb>
  bb:	48 8d 3d 00 00 00 00 	lea    0x0(%rip),%rdi        # c2 <array_alloc_op_counts+0xc2>
  c2:	e8 00 00 00 00       	call   c7 <array_alloc_op_counts+0xc7>
  c7:	66 0f 1f 84 00 00 00 	nopw   0x0(%rax,%rax,1)
  ce:	00 00 
  d0:	48 8d 15 00 00 00 00 	lea    0x0(%rip),%rdx        # d7 <array_alloc_op_counts+0xd7>
  d7:	48 8d 35 00 00 00 00 	lea    0x0(%rip),%rsi        # de <array_alloc_op_counts+0xde>
  de:	bf 01 00 00 00       	mov    $0x1,%edi
  e3:	31 c0                	xor    %eax,%eax
  e5:	e8 00 00 00 00       	call   ea <array_alloc_op_counts+0xea>
  ea:	48 8b 53 20          	mov    0x20(%rbx),%rdx
  ee:	48 8b 03             	mov    (%rbx),%rax
  f1:	48 89 ef             	mov    %rbp,%rdi
  f4:	4c 8b 64 d0 f8       	mov    -0x8(%rax,%rdx,8),%r12
  f9:	4c 89 e6             	mov    %r12,%rsi
  fc:	e8 00 00 00 00       	call   101 <array_alloc_op_counts+0x101>
 101:	48 85 c0             	test   %rax,%rax
 104:	0f 85 29 ff ff ff    	jne    33 <array_alloc_op_counts+0x33>
 10a:	bf c8 04 00 00       	mov    $0x4c8,%edi
 10f:	e8 00 00 00 00       	call   114 <array_alloc_op_counts+0x114>
 114:	48 89 c2             	mov    %rax,%rdx
 117:	4d 85 e4             	test   %r12,%r12
 11a:	0f 85 2d ff ff ff    	jne    4d <array_alloc_op_counts+0x4d>
 120:	eb 86                	jmp    a8 <array_alloc_op_counts+0xa8>
 122:	48 8b 3d 00 00 00 00 	mov    0x0(%rip),%rdi        # 129 <array_alloc_op_counts+0x129>
 129:	5b                   	pop    %rbx
 12a:	be 01 00 00 00       	mov    $0x1,%esi
 12f:	31 c0                	xor    %eax,%eax
 131:	5d                   	pop    %rbp
 132:	48 8d 0d 00 00 00 00 	lea    0x0(%rip),%rcx        # 139 <array_alloc_op_counts+0x139>
 139:	48 8d 15 00 00 00 00 	lea    0x0(%rip),%rdx        # 140 <array_alloc_op_counts+0x140>
 140:	41 5c                	pop    %r12
 142:	e9 00 00 00 00       	jmp    147 <.LC40+0x10>

Disassembly of section .text.ht_length:

0000000000000000 <ht_length>:
   0:	f3 0f 1e fa          	endbr64 
   4:	48 8b 47 10          	mov    0x10(%rdi),%rax
   8:	c3                   	ret    

Disassembly of section .text.ht_iterator:

0000000000000000 <ht_iterator>:
   0:	f3 0f 1e fa          	endbr64 
   4:	48 c7 07 00 00 00 00 	movq   $0x0,(%rdi)
   b:	48 89 f8             	mov    %rdi,%rax
   e:	48 c7 47 08 00 00 00 	movq   $0x0,0x8(%rdi)
  15:	00 
  16:	48 89 77 10          	mov    %rsi,0x10(%rdi)
  1a:	48 c7 47 18 00 00 00 	movq   $0x0,0x18(%rdi)
  21:	00 
  22:	c3                   	ret    

Disassembly of section .text.ht_next:

0000000000000000 <ht_next>:
   0:	f3 0f 1e fa          	endbr64 
   4:	48 8b 47 18          	mov    0x18(%rdi),%rax
   8:	48 8b 4f 10          	mov    0x10(%rdi),%rcx
   c:	48 89 c2             	mov    %rax,%rdx
   f:	48 c1 e2 04          	shl    $0x4,%rdx
  13:	eb 1d                	jmp    32 <ht_next+0x32>
  15:	0f 1f 00             	nopl   (%rax)
  18:	48 83 c0 01          	add    $0x1,%rax
  1c:	48 89 47 18          	mov    %rax,0x18(%rdi)
  20:	4c 8b 01             	mov    (%rcx),%r8
  23:	49 01 d0             	add    %rdx,%r8
  26:	48 83 c2 10          	add    $0x10,%rdx
  2a:	49 8b 30             	mov    (%r8),%rsi
  2d:	48 85 f6             	test   %rsi,%rsi
  30:	75 0e                	jne    40 <ht_next+0x40>
  32:	48 39 41 08          	cmp    %rax,0x8(%rcx)
  36:	77 e0                	ja     18 <ht_next+0x18>
  38:	31 c0                	xor    %eax,%eax
  3a:	c3                   	ret    
  3b:	0f 1f 44 00 00       	nopl   0x0(%rax,%rax,1)
  40:	49 8b 40 08          	mov    0x8(%r8),%rax
  44:	48 89 37             	mov    %rsi,(%rdi)
  47:	48 89 47 08          	mov    %rax,0x8(%rdi)
  4b:	b8 01 00 00 00       	mov    $0x1,%eax
  50:	c3                   	ret    

Disassembly of section .text.caml_interprete:

0000000000000000 <caml_interprete>:
       0:	f3 0f 1e fa          	endbr64 
       4:	41 57                	push   %r15
       6:	41 56                	push   %r14
       8:	41 55                	push   %r13
       a:	41 54                	push   %r12
       c:	55                   	push   %rbp
       d:	53                   	push   %rbx
       e:	48 89 fb             	mov    %rdi,%rbx
      11:	48 81 ec 68 02 00 00 	sub    $0x268,%rsp
      18:	48 89 7c 24 38       	mov    %rdi,0x38(%rsp)
      1d:	48 8d bc 24 90 01 00 	lea    0x190(%rsp),%rdi
      24:	00 
      25:	48 89 74 24 40       	mov    %rsi,0x40(%rsp)
      2a:	64 48 8b 04 25 28 00 	mov    %fs:0x28,%rax
      31:	00 00 
      33:	48 89 84 24 58 02 00 	mov    %rax,0x258(%rsp)
      3a:	00 
      3b:	31 c0                	xor    %eax,%eax
      3d:	48 8b 05 00 00 00 00 	mov    0x0(%rip),%rax        # 44 <caml_interprete+0x44>
      44:	48 c7 84 24 68 01 00 	movq   $0x1,0x168(%rsp)
      4b:	00 01 00 00 00 
      50:	64 48 8b 00          	mov    %fs:(%rax),%rax
      54:	48 89 bc 24 70 01 00 	mov    %rdi,0x170(%rsp)
      5b:	00 
      5c:	48 89 44 24 08       	mov    %rax,0x8(%rsp)
      61:	48 8b 80 a0 00 00 00 	mov    0xa0(%rax),%rax
      68:	48 89 84 24 78 01 00 	mov    %rax,0x178(%rsp)
      6f:	00 
      70:	48 8d 84 24 68 01 00 	lea    0x168(%rsp),%rax
      77:	00 
      78:	48 89 84 24 80 01 00 	mov    %rax,0x180(%rsp)
      7f:	00 
      80:	48 85 db             	test   %rbx,%rbx
      83:	0f 84 2d 07 00 00    	je     7b6 <__stubATOM0+0x12>
      89:	48 8b 5c 24 08       	mov    0x8(%rsp),%rbx
      8e:	31 f6                	xor    %esi,%esi
      90:	48 8b 83 d8 01 00 00 	mov    0x1d8(%rbx),%rax
      97:	48 8b 53 20          	mov    0x20(%rbx),%rdx
      9b:	48 89 44 24 70       	mov    %rax,0x70(%rsp)
      a0:	48 8b 42 10          	mov    0x10(%rdx),%rax
      a4:	48 2b 02             	sub    (%rdx),%rax
      a7:	48 c1 f8 03          	sar    $0x3,%rax
      ab:	48 89 44 24 78       	mov    %rax,0x78(%rsp)
      b0:	48 8b 83 e8 01 00 00 	mov    0x1e8(%rbx),%rax
      b7:	48 89 44 24 68       	mov    %rax,0x68(%rsp)
      bc:	e8 00 00 00 00       	call   c1 <caml_interprete+0xc1>
      c1:	f3 0f 1e fa          	endbr64 
      c5:	48 8b 5c 24 08       	mov    0x8(%rsp),%rbx
      ca:	41 89 c0             	mov    %eax,%r8d
      cd:	48 8b 43 20          	mov    0x20(%rbx),%rax
      d1:	45 85 c0             	test   %r8d,%r8d
      d4:	0f 84 23 04 00 00    	je     4fd <__stubCHECK_SIGNALS+0x364>
      da:	4c 8b 30             	mov    (%rax),%r14
      dd:	4c 8b ac 24 68 01 00 	mov    0x168(%rsp),%r13
      e4:	00 
      e5:	48 8b 83 e0 01 00 00 	mov    0x1e0(%rbx),%rax
      ec:	48 39 83 d8 01 00 00 	cmp    %rax,0x1d8(%rbx)
      f3:	0f 8d 0c 05 00 00    	jge    605 <__stubCHECK_SIGNALS+0x46c>
      f9:	48 8b 44 24 08       	mov    0x8(%rsp),%rax
      fe:	48 83 b8 c0 00 00 00 	cmpq   $0x0,0xc0(%rax)
     105:	00 
     106:	0f 85 42 01 00 00    	jne    24e <__stubCHECK_SIGNALS+0xb5>
     10c:	48 8b 44 24 08       	mov    0x8(%rsp),%rax
     111:	48 8b 80 d8 01 00 00 	mov    0x1d8(%rax),%rax
     118:	48 8b 7c 24 08       	mov    0x8(%rsp),%rdi
     11d:	48 8b 7f 20          	mov    0x20(%rdi),%rdi
     121:	48 8b 57 10          	mov    0x10(%rdi),%rdx
     125:	48 85 c0             	test   %rax,%rax
     128:	0f 8e 32 01 00 00    	jle    260 <__stubCHECK_SIGNALS+0xc7>
     12e:	48 8b 42 18          	mov    0x18(%rdx),%rax
     132:	48 85 c0             	test   %rax,%rax
     135:	0f 84 45 07 00 00    	je     880 <__stubATOM0+0xdc>
     13b:	48 8b 6a 08          	mov    0x8(%rdx),%rbp
     13f:	4c 89 37             	mov    %r14,(%rdi)
     142:	4c 8b 7c 24 08       	mov    0x8(%rsp),%r15
     147:	49 89 47 20          	mov    %rax,0x20(%r15)
     14b:	48 8b 18             	mov    (%rax),%rbx
     14e:	4c 8d 73 08          	lea    0x8(%rbx),%r14
     152:	e8 00 00 00 00       	call   157 <caml_interprete+0x157>
     157:	48 8b 03             	mov    (%rbx),%rax
     15a:	48 d1 f8             	sar    %rax
     15d:	49 89 87 d8 01 00 00 	mov    %rax,0x1d8(%r15)
     164:	48 8b 43 08          	mov    0x8(%rbx),%rax
     168:	48 d1 f8             	sar    %rax
     16b:	48 89 44 24 10       	mov    %rax,0x10(%rsp)
     170:	4c 89 6b 08          	mov    %r13,0x8(%rbx)
     174:	4c 8b 7d 00          	mov    0x0(%rbp),%r15
     178:	49 89 ed             	mov    %rbp,%r13
     17b:	48 8b 44 24 08       	mov    0x8(%rsp),%rax
     180:	4c 89 6c 24 18       	mov    %r13,0x18(%rsp)
     185:	48 8b 40 20          	mov    0x20(%rax),%rax
     189:	48 8d 90 a8 00 00 00 	lea    0xa8(%rax),%rdx
     190:	49 39 d6             	cmp    %rdx,%r14
     193:	0f 82 93 04 00 00    	jb     62c <__stubCHECK_SIGNALS+0x493>

0000000000000199 <__stubCHECK_SIGNALS>:
     199:	e8 00 00 00 00       	call   19e <__stubCHECK_SIGNALS+0x5>
     19e:	48 8b 7c 24 08       	mov    0x8(%rsp),%rdi
     1a3:	48 8b 07             	mov    (%rdi),%rax
     1a6:	48 39 47 08          	cmp    %rax,0x8(%rdi)
     1aa:	72 21                	jb     1cd <__stubCHECK_SIGNALS+0x34>
     1ac:	e8 00 00 00 00       	call   1b1 <__stubCHECK_SIGNALS+0x18>
     1b1:	48 8b 7c 24 60       	mov    0x60(%rsp),%rdi
     1b6:	48 89 7c 24 50       	mov    %rdi,0x50(%rsp)
     1bb:	48 8b 7c 24 20       	mov    0x20(%rsp),%rdi
     1c0:	48 89 7c 24 48       	mov    %rdi,0x48(%rsp)
     1c5:	85 c0                	test   %eax,%eax
     1c7:	0f 84 da 00 00 00    	je     2a7 <__stubCHECK_SIGNALS+0x10e>
     1cd:	48 8b 44 24 10       	mov    0x10(%rsp),%rax
     1d2:	4c 8d 64 00 01       	lea    0x1(%rax,%rax,1),%r12
     1d7:	48 8b 44 24 18       	mov    0x18(%rsp),%rax
     1dc:	48 8b 5c 24 08       	mov    0x8(%rsp),%rbx
     1e1:	4d 89 6e d0          	mov    %r13,-0x30(%r14)
     1e5:	49 8d 56 d0          	lea    -0x30(%r14),%rdx
     1e9:	4d 89 7e e8          	mov    %r15,-0x18(%r14)
     1ed:	49 c7 46 d8 01 00 00 	movq   $0x1,-0x28(%r14)
     1f4:	00 
     1f5:	49 c7 46 e0 01 00 00 	movq   $0x1,-0x20(%r14)
     1fc:	00 
     1fd:	49 89 46 f0          	mov    %rax,-0x10(%r14)
     201:	4d 89 66 f8          	mov    %r12,-0x8(%r14)
     205:	48 8b 43 20          	mov    0x20(%rbx),%rax
     209:	48 89 10             	mov    %rdx,(%rax)
     20c:	e8 00 00 00 00       	call   211 <__stubCHECK_SIGNALS+0x78>
     211:	48 8b 43 20          	mov    0x20(%rbx),%rax
     215:	48 8b 00             	mov    (%rax),%rax
     218:	48 8b 78 20          	mov    0x20(%rax),%rdi
     21c:	4c 8b 28             	mov    (%rax),%r13
     21f:	4c 8d 70 30          	lea    0x30(%rax),%r14
     223:	4c 8b 78 18          	mov    0x18(%rax),%r15
     227:	48 89 7c 24 18       	mov    %rdi,0x18(%rsp)
     22c:	48 8b 78 28          	mov    0x28(%rax),%rdi
     230:	48 8b 44 24 60       	mov    0x60(%rsp),%rax
     235:	48 d1 ff             	sar    %rdi
     238:	48 89 44 24 50       	mov    %rax,0x50(%rsp)
     23d:	48 8b 44 24 20       	mov    0x20(%rsp),%rax
     242:	48 89 7c 24 10       	mov    %rdi,0x10(%rsp)
     247:	48 89 44 24 48       	mov    %rax,0x48(%rsp)
     24c:	eb 59                	jmp    2a7 <__stubCHECK_SIGNALS+0x10e>
     24e:	31 d2                	xor    %edx,%edx
     250:	4c 89 f6             	mov    %r14,%rsi
     253:	4c 89 ef             	mov    %r13,%rdi
     256:	e8 00 00 00 00       	call   25b <__stubCHECK_SIGNALS+0xc2>
     25b:	e9 ac fe ff ff       	jmp    10c <caml_interprete+0x10c>
     260:	48 8d 04 c2          	lea    (%rdx,%rax,8),%rax
     264:	48 8b 7c 24 08       	mov    0x8(%rsp),%rdi
     269:	48 8b 50 08          	mov    0x8(%rax),%rdx
     26d:	4c 8b 38             	mov    (%rax),%r15
     270:	4c 8d 70 20          	lea    0x20(%rax),%r14
     274:	48 d1 fa             	sar    %rdx
     277:	48 89 97 d8 01 00 00 	mov    %rdx,0x1d8(%rdi)
     27e:	48 8b 78 10          	mov    0x10(%rax),%rdi
     282:	48 89 7c 24 18       	mov    %rdi,0x18(%rsp)
     287:	48 8b 78 18          	mov    0x18(%rax),%rdi
     28b:	48 8b 44 24 60       	mov    0x60(%rsp),%rax
     290:	48 d1 ff             	sar    %rdi
     293:	48 89 44 24 50       	mov    %rax,0x50(%rsp)
     298:	48 8b 44 24 20       	mov    0x20(%rsp),%rax
     29d:	48 89 7c 24 10       	mov    %rdi,0x10(%rsp)
     2a2:	48 89 44 24 48       	mov    %rax,0x48(%rsp)
     2a7:	48 8b 44 24 50       	mov    0x50(%rsp),%rax
     2ac:	48 89 44 24 60       	mov    %rax,0x60(%rsp)
     2b1:	48 8b 44 24 48       	mov    0x48(%rsp),%rax
     2b6:	48 89 44 24 20       	mov    %rax,0x20(%rsp)
     2bb:	4c 89 f0             	mov    %r14,%rax
     2be:	4d 89 fe             	mov    %r15,%r14
     2c1:	49 89 c7             	mov    %rax,%r15
     2c4:	0f 1f 40 00          	nopl   0x0(%rax)
     2c8:	48 8b 15 00 00 00 00 	mov    0x0(%rip),%rdx        # 2cf <__stubCHECK_SIGNALS+0x136>
     2cf:	64 48 83 04 25 00 00 	addq   $0x1,%fs:0x0
     2d6:	00 00 01 
     2d9:	64 48 8b 02          	mov    %fs:(%rdx),%rax
     2dd:	48 8d 48 ff          	lea    -0x1(%rax),%rcx
     2e1:	64 48 89 0a          	mov    %rcx,%fs:(%rdx)
     2e5:	48 85 c0             	test   %rax,%rax
     2e8:	0f 84 ca 00 00 00    	je     3b8 <__stubCHECK_SIGNALS+0x21f>
     2ee:	48 8b 05 00 00 00 00 	mov    0x0(%rip),%rax        # 2f5 <__stubCHECK_SIGNALS+0x15c>
     2f5:	48 8b 40 30          	mov    0x30(%rax),%rax
     2f9:	48 83 f8 01          	cmp    $0x1,%rax
     2fd:	76 27                	jbe    326 <__stubCHECK_SIGNALS+0x18d>
     2ff:	64 48 8b 14 25 00 00 	mov    %fs:0x0,%rdx
     306:	00 00 
     308:	48 8d 35 00 00 00 00 	lea    0x0(%rip),%rsi        # 30f <__stubCHECK_SIGNALS+0x176>
     30f:	bf 01 00 00 00       	mov    $0x1,%edi
     314:	31 c0                	xor    %eax,%eax
     316:	e8 00 00 00 00       	call   31b <__stubCHECK_SIGNALS+0x182>
     31b:	48 8b 05 00 00 00 00 	mov    0x0(%rip),%rax        # 322 <__stubCHECK_SIGNALS+0x189>
     322:	48 8b 40 30          	mov    0x30(%rax),%rax
     326:	48 85 c0             	test   %rax,%rax
     329:	0f 85 99 00 00 00    	jne    3c8 <__stubCHECK_SIGNALS+0x22f>
     32f:	48 8b 44 24 08       	mov    0x8(%rsp),%rax
     334:	48 8b 40 20          	mov    0x20(%rax),%rax
     338:	48 8d 50 28          	lea    0x28(%rax),%rdx
     33c:	49 39 d7             	cmp    %rdx,%r15
     33f:	0f 82 3c 2a 00 00    	jb     2d81 <__stubAPPTERM3+0x9ab>
     345:	4c 39 78 10          	cmp    %r15,0x10(%rax)
     349:	0f 82 4a 2a 00 00    	jb     2d99 <__stubAPPTERM3+0x9c3>
     34f:	41 8b 0e             	mov    (%r14),%ecx
     352:	81 f9 98 00 00 00    	cmp    $0x98,%ecx
     358:	0f 8f f2 00 00 00    	jg     450 <__stubCHECK_SIGNALS+0x2b7>
     35e:	48 8b 44 24 28       	mov    0x28(%rsp),%rax
     363:	48 63 d9             	movslq %ecx,%rbx
     366:	48 83 44 24 30 01    	addq   $0x1,0x30(%rsp)
     36c:	48 c1 e3 03          	shl    $0x3,%rbx
     370:	48 83 04 18 01       	addq   $0x1,(%rax,%rbx,1)
     375:	48 8b 44 24 20       	mov    0x20(%rsp),%rax
     37a:	48 83 78 08 00       	cmpq   $0x0,0x8(%rax)
     37f:	0f 85 f3 00 00 00    	jne    478 <__stubCHECK_SIGNALS+0x2df>
     385:	48 8b 44 24 10       	mov    0x10(%rsp),%rax
     38a:	49 8d 6e 04          	lea    0x4(%r14),%rbp
     38e:	48 89 c3             	mov    %rax,%rbx
     391:	4c 8d 64 00 01       	lea    0x1(%rax,%rax,1),%r12
     396:	81 f9 98 00 00 00    	cmp    $0x98,%ecx
     39c:	0f 87 ce 29 00 00    	ja     2d70 <__stubAPPTERM3+0x99a>
     3a2:	48 8d 35 00 00 00 00 	lea    0x0(%rip),%rsi        # 3a9 <__stubCHECK_SIGNALS+0x210>
     3a9:	89 c9                	mov    %ecx,%ecx
     3ab:	48 63 04 8e          	movslq (%rsi,%rcx,4),%rax
     3af:	48 01 f0             	add    %rsi,%rax
     3b2:	3e ff e0             	notrack jmp *%rax
     3b5:	0f 1f 00             	nopl   (%rax)
     3b8:	e8 00 00 00 00       	call   3bd <__stubCHECK_SIGNALS+0x224>
     3bd:	e9 2c ff ff ff       	jmp    2ee <__stubCHECK_SIGNALS+0x155>
     3c2:	66 0f 1f 44 00 00    	nopw   0x0(%rax,%rax,1)
     3c8:	4c 89 f7             	mov    %r14,%rdi
     3cb:	e8 00 00 00 00       	call   3d0 <__stubCHECK_SIGNALS+0x237>
     3d0:	48 8b 05 00 00 00 00 	mov    0x0(%rip),%rax        # 3d7 <__stubCHECK_SIGNALS+0x23e>
     3d7:	48 83 78 30 01       	cmpq   $0x1,0x30(%rax)
     3dc:	0f 86 4d ff ff ff    	jbe    32f <__stubCHECK_SIGNALS+0x196>
     3e2:	48 8d 35 00 00 00 00 	lea    0x0(%rip),%rsi        # 3e9 <__stubCHECK_SIGNALS+0x250>
     3e9:	bf 01 00 00 00       	mov    $0x1,%edi
     3ee:	31 c0                	xor    %eax,%eax
     3f0:	e8 00 00 00 00       	call   3f5 <__stubCHECK_SIGNALS+0x25c>
     3f5:	48 8b 6c 24 40       	mov    0x40(%rsp),%rbp
     3fa:	48 8b 5c 24 38       	mov    0x38(%rsp),%rbx
     3ff:	48 8b 0d 00 00 00 00 	mov    0x0(%rip),%rcx        # 406 <__stubCHECK_SIGNALS+0x26d>
     406:	48 8b 7c 24 18       	mov    0x18(%rsp),%rdi
     40b:	48 89 ea             	mov    %rbp,%rdx
     40e:	48 89 de             	mov    %rbx,%rsi
     411:	e8 00 00 00 00       	call   416 <__stubCHECK_SIGNALS+0x27d>
     416:	48 8b 35 00 00 00 00 	mov    0x0(%rip),%rsi        # 41d <__stubCHECK_SIGNALS+0x284>
     41d:	bf 0a 00 00 00       	mov    $0xa,%edi
     422:	e8 00 00 00 00       	call   427 <__stubCHECK_SIGNALS+0x28e>
     427:	4c 89 ef             	mov    %r13,%rdi
     42a:	48 89 e9             	mov    %rbp,%rcx
     42d:	48 89 da             	mov    %rbx,%rdx
     430:	4c 8b 05 00 00 00 00 	mov    0x0(%rip),%r8        # 437 <__stubCHECK_SIGNALS+0x29e>
     437:	4c 89 fe             	mov    %r15,%rsi
     43a:	e8 00 00 00 00       	call   43f <__stubCHECK_SIGNALS+0x2a6>
     43f:	48 8b 3d 00 00 00 00 	mov    0x0(%rip),%rdi        # 446 <__stubCHECK_SIGNALS+0x2ad>
     446:	e8 00 00 00 00       	call   44b <__stubCHECK_SIGNALS+0x2b2>
     44b:	e9 df fe ff ff       	jmp    32f <__stubCHECK_SIGNALS+0x196>
     450:	48 8b 3d 00 00 00 00 	mov    0x0(%rip),%rdi        # 457 <__stubCHECK_SIGNALS+0x2be>
     457:	48 8d 15 00 00 00 00 	lea    0x0(%rip),%rdx        # 45e <__stubCHECK_SIGNALS+0x2c5>
     45e:	be 01 00 00 00       	mov    $0x1,%esi
     463:	31 c0                	xor    %eax,%eax
     465:	e8 00 00 00 00       	call   46a <__stubCHECK_SIGNALS+0x2d1>
     46a:	41 8b 0e             	mov    (%r14),%ecx
     46d:	e9 13 ff ff ff       	jmp    385 <__stubCHECK_SIGNALS+0x1ec>
     472:	66 0f 1f 44 00 00    	nopw   0x0(%rax,%rax,1)
     478:	48 8b 44 24 48       	mov    0x48(%rsp),%rax
     47d:	48 83 78 08 00       	cmpq   $0x0,0x8(%rax)
     482:	74 39                	je     4bd <__stubCHECK_SIGNALS+0x324>
     484:	48 8b 50 20          	mov    0x20(%rax),%rdx
     488:	48 8b 00             	mov    (%rax),%rax
     48b:	48 8d 6c d0 f8       	lea    -0x8(%rax,%rdx,8),%rbp
     490:	48 8b 75 00          	mov    0x0(%rbp),%rsi
     494:	48 85 f6             	test   %rsi,%rsi
     497:	0f 84 ae 03 00 00    	je     84b <__stubATOM0+0xa7>
     49d:	48 8b 7c 24 50       	mov    0x50(%rsp),%rdi
     4a2:	e8 00 00 00 00       	call   4a7 <__stubCHECK_SIGNALS+0x30e>
     4a7:	48 85 c0             	test   %rax,%rax
     4aa:	0f 84 23 29 00 00    	je     2dd3 <__stubAPPTERM3+0x9fd>
     4b0:	48 83 04 18 01       	addq   $0x1,(%rax,%rbx,1)
     4b5:	41 8b 0e             	mov    (%r14),%ecx
     4b8:	e9 c8 fe ff ff       	jmp    385 <__stubCHECK_SIGNALS+0x1ec>
     4bd:	48 8b 3d 00 00 00 00 	mov    0x0(%rip),%rdi        # 4c4 <__stubCHECK_SIGNALS+0x32b>
     4c4:	48 8d 0d 00 00 00 00 	lea    0x0(%rip),%rcx        # 4cb <__stubCHECK_SIGNALS+0x332>
     4cb:	48 8d 15 00 00 00 00 	lea    0x0(%rip),%rdx        # 4d2 <__stubCHECK_SIGNALS+0x339>
     4d2:	31 c0                	xor    %eax,%eax
     4d4:	be 01 00 00 00       	mov    $0x1,%esi
     4d9:	e8 00 00 00 00       	call   4de <__stubCHECK_SIGNALS+0x345>
     4de:	48 8d 0d 00 00 00 00 	lea    0x0(%rip),%rcx        # 4e5 <__stubCHECK_SIGNALS+0x34c>
     4e5:	ba 60 02 00 00       	mov    $0x260,%edx
     4ea:	48 8d 35 00 00 00 00 	lea    0x0(%rip),%rsi        # 4f1 <__stubCHECK_SIGNALS+0x358>
     4f1:	48 8d 3d 00 00 00 00 	lea    0x0(%rip),%rdi        # 4f8 <__stubCHECK_SIGNALS+0x35f>
     4f8:	e8 00 00 00 00       	call   4fd <__stubCHECK_SIGNALS+0x364>
     4fd:	48 8b 7c 24 08       	mov    0x8(%rsp),%rdi
     502:	48 8d 94 24 70 01 00 	lea    0x170(%rsp),%rdx
     509:	00 
     50a:	48 89 97 e8 01 00 00 	mov    %rdx,0x1e8(%rdi)
     511:	48 c7 87 d8 01 00 00 	movq   $0x1,0x1d8(%rdi)
     518:	01 00 00 00 
     51c:	31 ff                	xor    %edi,%edi
     51e:	4c 8b 30             	mov    (%rax),%r14
     521:	e8 00 00 00 00       	call   526 <__stubCHECK_SIGNALS+0x38d>
     526:	bf c8 04 00 00       	mov    $0x4c8,%edi
     52b:	48 c7 44 24 30 00 00 	movq   $0x0,0x30(%rsp)
     532:	00 00 
     534:	48 89 44 24 18       	mov    %rax,0x18(%rsp)
     539:	e8 00 00 00 00       	call   53e <__stubCHECK_SIGNALS+0x3a5>
     53e:	48 89 44 24 28       	mov    %rax,0x28(%rsp)
     543:	48 85 c0             	test   %rax,%rax
     546:	0f 84 90 27 00 00    	je     2cdc <__stubAPPTERM3+0x906>
     54c:	48 8b 7c 24 28       	mov    0x28(%rsp),%rdi
     551:	31 c0                	xor    %eax,%eax
     553:	b9 99 00 00 00       	mov    $0x99,%ecx
     558:	be 01 00 00 00       	mov    $0x1,%esi
     55d:	f3 48 ab             	rep stos %rax,%es:(%rdi)
     560:	bf 00 20 00 00       	mov    $0x2000,%edi
     565:	e8 00 00 00 00       	call   56a <__stubCHECK_SIGNALS+0x3d1>
     56a:	48 89 c3             	mov    %rax,%rbx
     56d:	48 85 c0             	test   %rax,%rax
     570:	0f 84 8d 27 00 00    	je     2d03 <__stubAPPTERM3+0x92d>
     576:	bf 28 00 00 00       	mov    $0x28,%edi
     57b:	e8 00 00 00 00       	call   580 <__stubCHECK_SIGNALS+0x3e7>
     580:	48 89 44 24 48       	mov    %rax,0x48(%rsp)
     585:	48 85 c0             	test   %rax,%rax
     588:	0f 84 23 28 00 00    	je     2db1 <__stubAPPTERM3+0x9db>
     58e:	48 8b 44 24 48       	mov    0x48(%rsp),%rax
     593:	66 0f ef c0          	pxor   %xmm0,%xmm0
     597:	bf 18 00 00 00       	mov    $0x18,%edi
     59c:	48 89 18             	mov    %rbx,(%rax)
     59f:	0f 11 40 08          	movups %xmm0,0x8(%rax)
     5a3:	48 c7 40 10 00 04 00 	movq   $0x400,0x10(%rax)
     5aa:	00 
     5ab:	0f 11 40 18          	movups %xmm0,0x18(%rax)
     5af:	e8 00 00 00 00       	call   5b4 <__stubCHECK_SIGNALS+0x41b>
     5b4:	48 89 44 24 50       	mov    %rax,0x50(%rsp)
     5b9:	48 89 c3             	mov    %rax,%rbx
     5bc:	48 85 c0             	test   %rax,%rax
     5bf:	74 2b                	je     5ec <__stubCHECK_SIGNALS+0x453>
     5c1:	48 c7 40 10 00 00 00 	movq   $0x0,0x10(%rax)
     5c8:	00 
     5c9:	be 10 00 00 00       	mov    $0x10,%esi
     5ce:	bf 10 00 00 00       	mov    $0x10,%edi
     5d3:	48 c7 40 08 10 00 00 	movq   $0x10,0x8(%rax)
     5da:	00 
     5db:	e8 00 00 00 00       	call   5e0 <__stubCHECK_SIGNALS+0x447>
     5e0:	48 89 03             	mov    %rax,(%rbx)
     5e3:	48 85 c0             	test   %rax,%rax
     5e6:	0f 84 53 27 00 00    	je     2d3f <__stubAPPTERM3+0x969>
     5ec:	48 c7 44 24 10 00 00 	movq   $0x0,0x10(%rsp)
     5f3:	00 00 
     5f5:	4c 8b 7c 24 38       	mov    0x38(%rsp),%r15
     5fa:	41 bd 01 00 00 00    	mov    $0x1,%r13d
     600:	e9 a2 fc ff ff       	jmp    2a7 <__stubCHECK_SIGNALS+0x10e>
     605:	be 01 00 00 00       	mov    $0x1,%esi
     60a:	bf 04 00 00 00       	mov    $0x4,%edi
     60f:	e8 00 00 00 00       	call   614 <__stubCHECK_SIGNALS+0x47b>
     614:	48 8b 44 24 08       	mov    0x8(%rsp),%rax
     619:	48 83 b8 c0 00 00 00 	cmpq   $0x0,0xc0(%rax)
     620:	00 
     621:	0f 84 e5 fa ff ff    	je     10c <caml_interprete+0x10c>
     627:	e9 22 fc ff ff       	jmp    24e <__stubCHECK_SIGNALS+0xb5>
     62c:	4c 89 30             	mov    %r14,(%rax)
     62f:	bf 10 00 00 00       	mov    $0x10,%edi
     634:	e8 00 00 00 00       	call   639 <__stubCHECK_SIGNALS+0x4a0>
     639:	85 c0                	test   %eax,%eax
     63b:	0f 84 9b 29 00 00    	je     2fdc <__stubAPPTERM3+0xc06>
     641:	48 8b 44 24 08       	mov    0x8(%rsp),%rax
     646:	48 8b 40 20          	mov    0x20(%rax),%rax
     64a:	4c 8b 30             	mov    (%rax),%r14
     64d:	e9 47 fb ff ff       	jmp    199 <__stubCHECK_SIGNALS>

0000000000000652 <__stubPUSH>:
     652:	4d 89 6f f8          	mov    %r13,-0x8(%r15)
     656:	49 89 ee             	mov    %rbp,%r14
     659:	49 83 ef 08          	sub    $0x8,%r15
     65d:	e9 66 fc ff ff       	jmp    2c8 <__stubCHECK_SIGNALS+0x12f>

0000000000000662 <__stubPUSHACC>:
     662:	4d 89 6f f8          	mov    %r13,-0x8(%r15)
     666:	49 83 ef 08          	sub    $0x8,%r15

000000000000066a <__stubACC>:
     66a:	49 63 46 04          	movslq 0x4(%r14),%rax
     66e:	49 83 c6 08          	add    $0x8,%r14
     672:	4d 8b 2c c7          	mov    (%r15,%rax,8),%r13
     676:	e9 4d fc ff ff       	jmp    2c8 <__stubCHECK_SIGNALS+0x12f>

000000000000067b <__stubPUSHGETGLOBALFIELD>:
     67b:	4d 89 6f f8          	mov    %r13,-0x8(%r15)
     67f:	49 83 ef 08          	sub    $0x8,%r15

0000000000000683 <__stubGETGLOBALFIELD>:
     683:	48 8b 05 00 00 00 00 	mov    0x0(%rip),%rax        # 68a <__stubGETGLOBALFIELD+0x7>
     68a:	49 63 4e 04          	movslq 0x4(%r14),%rcx
     68e:	49 83 c6 0c          	add    $0xc,%r14
     692:	49 63 56 fc          	movslq -0x4(%r14),%rdx
     696:	48 8b 04 c8          	mov    (%rax,%rcx,8),%rax
     69a:	4c 8b 2c d0          	mov    (%rax,%rdx,8),%r13
     69e:	e9 25 fc ff ff       	jmp    2c8 <__stubCHECK_SIGNALS+0x12f>

00000000000006a3 <__stubPUSHGETGLOBAL>:
     6a3:	4d 89 6f f8          	mov    %r13,-0x8(%r15)
     6a7:	49 83 ef 08          	sub    $0x8,%r15

00000000000006ab <__stubGETGLOBAL>:
     6ab:	48 8b 05 00 00 00 00 	mov    0x0(%rip),%rax        # 6b2 <__stubGETGLOBAL+0x7>
     6b2:	49 63 56 04          	movslq 0x4(%r14),%rdx
     6b6:	49 83 c6 08          	add    $0x8,%r14
     6ba:	4c 8b 2c d0          	mov    (%rax,%rdx,8),%r13
     6be:	e9 05 fc ff ff       	jmp    2c8 <__stubCHECK_SIGNALS+0x12f>

00000000000006c3 <__stubPUSHOFFSETCLOSURE>:
     6c3:	4d 89 6f f8          	mov    %r13,-0x8(%r15)
     6c7:	49 83 ef 08          	sub    $0x8,%r15

00000000000006cb <__stubOFFSETCLOSURE>:
     6cb:	49 63 46 04          	movslq 0x4(%r14),%rax
     6cf:	48 8b 7c 24 18       	mov    0x18(%rsp),%rdi
     6d4:	49 83 c6 08          	add    $0x8,%r14
     6d8:	4c 8d 2c c7          	lea    (%rdi,%rax,8),%r13
     6dc:	e9 e7 fb ff ff       	jmp    2c8 <__stubCHECK_SIGNALS+0x12f>

00000000000006e1 <__stubPUSHOFFSETCLOSURE3>:
     6e1:	4d 89 6f f8          	mov    %r13,-0x8(%r15)
     6e5:	49 83 ef 08          	sub    $0x8,%r15

00000000000006e9 <__stubOFFSETCLOSURE3>:
     6e9:	48 8b 44 24 18       	mov    0x18(%rsp),%rax
     6ee:	49 89 ee             	mov    %rbp,%r14
     6f1:	4c 8d 68 18          	lea    0x18(%rax),%r13
     6f5:	e9 ce fb ff ff       	jmp    2c8 <__stubCHECK_SIGNALS+0x12f>

00000000000006fa <__stubPUSHOFFSETCLOSURE0>:
     6fa:	4d 89 6f f8          	mov    %r13,-0x8(%r15)
     6fe:	49 83 ef 08          	sub    $0x8,%r15

0000000000000702 <__stubOFFSETCLOSURE0>:
     702:	4c 8b 6c 24 18       	mov    0x18(%rsp),%r13
     707:	49 89 ee             	mov    %rbp,%r14
     70a:	e9 b9 fb ff ff       	jmp    2c8 <__stubCHECK_SIGNALS+0x12f>

000000000000070f <__stubPUSHOFFSETCLOSUREM3>:
     70f:	4d 89 6f f8          	mov    %r13,-0x8(%r15)
     713:	49 83 ef 08          	sub    $0x8,%r15

0000000000000717 <__stubOFFSETCLOSUREM3>:
     717:	48 8b 44 24 18       	mov    0x18(%rsp),%rax
     71c:	49 89 ee             	mov    %rbp,%r14
     71f:	4c 8d 68 e8          	lea    -0x18(%rax),%r13
     723:	e9 a0 fb ff ff       	jmp    2c8 <__stubCHECK_SIGNALS+0x12f>

0000000000000728 <__stubPUSHENVACC>:
     728:	4d 89 6f f8          	mov    %r13,-0x8(%r15)
     72c:	49 83 ef 08          	sub    $0x8,%r15

0000000000000730 <__stubENVACC>:
     730:	49 63 46 04          	movslq 0x4(%r14),%rax
     734:	48 8b 7c 24 18       	mov    0x18(%rsp),%rdi
     739:	49 83 c6 08          	add    $0x8,%r14
     73d:	4c 8b 2c c7          	mov    (%rdi,%rax,8),%r13
     741:	e9 82 fb ff ff       	jmp    2c8 <__stubCHECK_SIGNALS+0x12f>

0000000000000746 <__stubPUSHCONSTINT>:
     746:	4d 89 6f f8          	mov    %r13,-0x8(%r15)
     74a:	49 83 ef 08          	sub    $0x8,%r15

000000000000074e <__stubCONSTINT>:
     74e:	49 63 46 04          	movslq 0x4(%r14),%rax
     752:	49 83 c6 08          	add    $0x8,%r14
     756:	4c 8d 6c 00 01       	lea    0x1(%rax,%rax,1),%r13
     75b:	e9 68 fb ff ff       	jmp    2c8 <__stubCHECK_SIGNALS+0x12f>

0000000000000760 <__stubGETBYTESCHAR>:
     760:	49 8b 07             	mov    (%r15),%rax
     763:	49 89 ee             	mov    %rbp,%r14
     766:	49 83 c7 08          	add    $0x8,%r15
     76a:	48 d1 f8             	sar    %rax
     76d:	42 0f b6 04 28       	movzbl (%rax,%r13,1),%eax
     772:	4c 8d 6c 00 01       	lea    0x1(%rax,%rax,1),%r13
     777:	e9 4c fb ff ff       	jmp    2c8 <__stubCHECK_SIGNALS+0x12f>

000000000000077c <__stubPUSHATOM>:
     77c:	4d 89 6f f8          	mov    %r13,-0x8(%r15)
     780:	49 83 ef 08          	sub    $0x8,%r15

0000000000000784 <__stubATOM>:
     784:	41 8b 7e 04          	mov    0x4(%r14),%edi
     788:	49 8d 5e 08          	lea    0x8(%r14),%rbx
     78c:	49 89 de             	mov    %rbx,%r14
     78f:	e8 00 00 00 00       	call   794 <__stubATOM+0x10>
     794:	49 89 c5             	mov    %rax,%r13
     797:	e9 2c fb ff ff       	jmp    2c8 <__stubCHECK_SIGNALS+0x12f>

000000000000079c <__stubPUSHATOM0>:
     79c:	4d 89 6f f8          	mov    %r13,-0x8(%r15)
     7a0:	49 83 ef 08          	sub    $0x8,%r15

00000000000007a4 <__stubATOM0>:
     7a4:	31 ff                	xor    %edi,%edi
     7a6:	49 89 ee             	mov    %rbp,%r14
     7a9:	e8 00 00 00 00       	call   7ae <__stubATOM0+0xa>
     7ae:	49 89 c5             	mov    %rax,%r13
     7b1:	e9 12 fb ff ff       	jmp    2c8 <__stubCHECK_SIGNALS+0x12f>
     7b6:	48 8d 35 00 00 00 00 	lea    0x0(%rip),%rsi        # 7bd <__stubATOM0+0x19>
     7bd:	31 c9                	xor    %ecx,%ecx
     7bf:	ba 03 00 00 00       	mov    $0x3,%edx
     7c4:	41 bd 01 00 00 00    	mov    $0x1,%r13d
     7ca:	48 8d 5e f4          	lea    -0xc(%rsi),%rbx
     7ce:	48 89 df             	mov    %rbx,%rdi
     7d1:	e8 00 00 00 00       	call   7d6 <__stubATOM0+0x32>
     7d6:	be f7 00 00 00       	mov    $0xf7,%esi
     7db:	bf 02 00 00 00       	mov    $0x2,%edi
     7e0:	e8 00 00 00 00       	call   7e5 <__stubATOM0+0x41>
     7e5:	48 8d 3d 00 00 00 00 	lea    0x0(%rip),%rdi        # 7ec <__stubATOM0+0x48>
     7ec:	48 89 18             	mov    %rbx,(%rax)
     7ef:	48 c7 40 08 05 00 00 	movq   $0x5,0x8(%rax)
     7f6:	00 
     7f7:	48 89 05 00 00 00 00 	mov    %rax,0x0(%rip)        # 7fe <__stubATOM0+0x5a>
     7fe:	e8 00 00 00 00       	call   803 <__stubATOM0+0x5f>
     803:	48 8d 3d 00 00 00 00 	lea    0x0(%rip),%rdi        # 80a <__stubATOM0+0x66>
     80a:	48 c7 05 00 00 00 00 	movq   $0x1,0x0(%rip)        # 815 <__stubATOM0+0x71>
     811:	01 00 00 00 
     815:	e8 00 00 00 00       	call   81a <__stubATOM0+0x76>
     81a:	e8 00 00 00 00       	call   81f <__stubATOM0+0x7b>
     81f:	48 8b 84 24 58 02 00 	mov    0x258(%rsp),%rax
     826:	00 
     827:	64 48 2b 04 25 28 00 	sub    %fs:0x28,%rax
     82e:	00 00 
     830:	0f 85 c7 27 00 00    	jne    2ffd <__stubAPPTERM3+0xc27>
     836:	48 81 c4 68 02 00 00 	add    $0x268,%rsp
     83d:	4c 89 e8             	mov    %r13,%rax
     840:	5b                   	pop    %rbx
     841:	5d                   	pop    %rbp
     842:	41 5c                	pop    %r12
     844:	41 5d                	pop    %r13
     846:	41 5e                	pop    %r14
     848:	41 5f                	pop    %r15
     84a:	c3                   	ret    
     84b:	48 8d 35 00 00 00 00 	lea    0x0(%rip),%rsi        # 852 <__stubATOM0+0xae>
     852:	48 8d 15 00 00 00 00 	lea    0x0(%rip),%rdx        # 859 <__stubATOM0+0xb5>
     859:	bf 01 00 00 00       	mov    $0x1,%edi
     85e:	31 c0                	xor    %eax,%eax
     860:	e8 00 00 00 00       	call   865 <__stubATOM0+0xc1>
     865:	48 8b 75 00          	mov    0x0(%rbp),%rsi
     869:	48 85 f6             	test   %rsi,%rsi
     86c:	0f 85 2b fc ff ff    	jne    49d <__stubCHECK_SIGNALS+0x304>
     872:	e9 67 fc ff ff       	jmp    4de <__stubCHECK_SIGNALS+0x345>
     877:	66 0f 1f 84 00 00 00 	nopw   0x0(%rax,%rax,1)
     87e:	00 00 
     880:	48 8b 44 24 08       	mov    0x8(%rsp),%rax
     885:	48 8b 5c 24 68       	mov    0x68(%rsp),%rbx
     88a:	49 83 cd 02          	or     $0x2,%r13
     88e:	48 63 54 24 78       	movslq 0x78(%rsp),%rdx
     893:	48 89 98 e8 01 00 00 	mov    %rbx,0x1e8(%rax)
     89a:	48 8b 5c 24 70       	mov    0x70(%rsp),%rbx
     89f:	48 c1 e2 03          	shl    $0x3,%rdx
     8a3:	48 89 98 d8 01 00 00 	mov    %rbx,0x1d8(%rax)
     8aa:	48 8b 47 10          	mov    0x10(%rdi),%rax
     8ae:	48 29 d0             	sub    %rdx,%rax
     8b1:	48 89 07             	mov    %rax,(%rdi)
     8b4:	e9 66 ff ff ff       	jmp    81f <__stubATOM0+0x7b>

00000000000008b9 <__stubSETBYTESCHAR>:
     8b9:	49 8b 07             	mov    (%r15),%rax
     8bc:	49 8b 57 08          	mov    0x8(%r15),%rdx
     8c0:	49 89 ee             	mov    %rbp,%r14
     8c3:	49 83 c7 10          	add    $0x10,%r15
     8c7:	48 d1 f8             	sar    %rax
     8ca:	48 d1 fa             	sar    %rdx
     8cd:	42 88 14 28          	mov    %dl,(%rax,%r13,1)
     8d1:	41 bd 01 00 00 00    	mov    $0x1,%r13d
     8d7:	e9 ec f9 ff ff       	jmp    2c8 <__stubCHECK_SIGNALS+0x12f>

00000000000008dc <__stubACC0>:
     8dc:	4d 8b 2f             	mov    (%r15),%r13
     8df:	49 89 ee             	mov    %rbp,%r14
     8e2:	e9 e1 f9 ff ff       	jmp    2c8 <__stubCHECK_SIGNALS+0x12f>

00000000000008e7 <__stubACC1>:
     8e7:	4d 8b 6f 08          	mov    0x8(%r15),%r13
     8eb:	49 89 ee             	mov    %rbp,%r14
     8ee:	e9 d5 f9 ff ff       	jmp    2c8 <__stubCHECK_SIGNALS+0x12f>

00000000000008f3 <__stubACC2>:
     8f3:	4d 8b 6f 10          	mov    0x10(%r15),%r13
     8f7:	49 89 ee             	mov    %rbp,%r14
     8fa:	e9 c9 f9 ff ff       	jmp    2c8 <__stubCHECK_SIGNALS+0x12f>

00000000000008ff <__stubACC3>:
     8ff:	4d 8b 6f 18          	mov    0x18(%r15),%r13
     903:	49 89 ee             	mov    %rbp,%r14
     906:	e9 bd f9 ff ff       	jmp    2c8 <__stubCHECK_SIGNALS+0x12f>

000000000000090b <__stubACC4>:
     90b:	4d 8b 6f 20          	mov    0x20(%r15),%r13
     90f:	49 89 ee             	mov    %rbp,%r14
     912:	e9 b1 f9 ff ff       	jmp    2c8 <__stubCHECK_SIGNALS+0x12f>

0000000000000917 <__stubACC5>:
     917:	4d 8b 6f 28          	mov    0x28(%r15),%r13
     91b:	49 89 ee             	mov    %rbp,%r14
     91e:	e9 a5 f9 ff ff       	jmp    2c8 <__stubCHECK_SIGNALS+0x12f>

0000000000000923 <__stubACC6>:
     923:	4d 8b 6f 30          	mov    0x30(%r15),%r13
     927:	49 89 ee             	mov    %rbp,%r14
     92a:	e9 99 f9 ff ff       	jmp    2c8 <__stubCHECK_SIGNALS+0x12f>

000000000000092f <__stubACC7>:
     92f:	4d 8b 6f 38          	mov    0x38(%r15),%r13
     933:	49 89 ee             	mov    %rbp,%r14
     936:	e9 8d f9 ff ff       	jmp    2c8 <__stubCHECK_SIGNALS+0x12f>
     93b:	4c 89 f8             	mov    %r15,%rax
     93e:	4d 89 f7             	mov    %r14,%r15
     941:	49 89 c6             	mov    %rax,%r14

0000000000000944 <__stubREPERFORMTERM>:
     944:	48 8b 50 08          	mov    0x8(%rax),%rdx
     948:	48 8b 38             	mov    (%rax),%rdi
     94b:	f6 c2 01             	test   $0x1,%dl
     94e:	0f 84 93 25 00 00    	je     2ee7 <__stubAPPTERM3+0xb11>
     954:	4c 8b 5c 24 08       	mov    0x8(%rsp),%r11
     959:	49 63 77 04          	movslq 0x4(%r15),%rsi
     95d:	48 83 ea 01          	sub    $0x1,%rdx
     961:	49 8b 4b 20          	mov    0x20(%r11),%rcx
     965:	49 8d 5c f6 f0       	lea    -0x10(%r14,%rsi,8),%rbx
     96a:	49 8b b3 d8 01 00 00 	mov    0x1d8(%r11),%rsi
     971:	48 8b 41 10          	mov    0x10(%rcx),%rax
     975:	48 8d 74 36 01       	lea    0x1(%rsi,%rsi,1),%rsi
     97a:	48 8b 40 18          	mov    0x18(%rax),%rax
     97e:	48 89 33             	mov    %rsi,(%rbx)
     981:	4c 89 63 08          	mov    %r12,0x8(%rbx)
     985:	48 85 c0             	test   %rax,%rax
     988:	0f 84 0e 20 00 00    	je     299c <__stubAPPTERM3+0x5c6>
     98e:	48 89 19             	mov    %rbx,(%rcx)
     991:	48 8b 5c 24 08       	mov    0x8(%rsp),%rbx
     996:	48 89 43 20          	mov    %rax,0x20(%rbx)
     99a:	48 8b 72 10          	mov    0x10(%rdx),%rsi
     99e:	48 8b 00             	mov    (%rax),%rax
     9a1:	48 83 7e 18 00       	cmpq   $0x0,0x18(%rsi)
     9a6:	0f 85 6b 25 00 00    	jne    2f17 <__stubAPPTERM3+0xb41>
     9ac:	48 8b 71 10          	mov    0x10(%rcx),%rsi
     9b0:	48 8b 5c 24 08       	mov    0x8(%rsp),%rbx
     9b5:	4c 8d 70 f8          	lea    -0x8(%rax),%r14
     9b9:	48 c7 46 18 00 00 00 	movq   $0x0,0x18(%rsi)
     9c0:	00 
     9c1:	48 8b 52 10          	mov    0x10(%rdx),%rdx
     9c5:	48 89 4a 18          	mov    %rcx,0x18(%rdx)
     9c9:	48 8b 10             	mov    (%rax),%rdx
     9cc:	48 d1 fa             	sar    %rdx
     9cf:	48 89 93 d8 01 00 00 	mov    %rdx,0x1d8(%rbx)
     9d6:	48 8b 50 08          	mov    0x8(%rax),%rdx
     9da:	4c 89 68 f8          	mov    %r13,-0x8(%rax)
     9de:	48 89 38             	mov    %rdi,(%rax)
     9e1:	48 d1 fa             	sar    %rdx
     9e4:	f6 c1 01             	test   $0x1,%cl
     9e7:	0f 85 12 25 00 00    	jne    2eff <__stubAPPTERM3+0xb29>
     9ed:	48 8d 71 01          	lea    0x1(%rcx),%rsi
     9f1:	48 89 70 08          	mov    %rsi,0x8(%rax)
     9f5:	48 8b 41 10          	mov    0x10(%rcx),%rax
     9f9:	4c 8b 68 10          	mov    0x10(%rax),%r13
     9fd:	48 8d 42 02          	lea    0x2(%rdx),%rax
     a01:	4d 8b 7d 00          	mov    0x0(%r13),%r15
     a05:	48 89 44 24 10       	mov    %rax,0x10(%rsp)
     a0a:	e9 6c f7 ff ff       	jmp    17b <caml_interprete+0x17b>

0000000000000a0f <__stubPUSHACC6>:
     a0f:	4d 89 6f f8          	mov    %r13,-0x8(%r15)
     a13:	49 89 ee             	mov    %rbp,%r14
     a16:	4d 8b 6f 28          	mov    0x28(%r15),%r13
     a1a:	49 83 ef 08          	sub    $0x8,%r15
     a1e:	e9 a5 f8 ff ff       	jmp    2c8 <__stubCHECK_SIGNALS+0x12f>

0000000000000a23 <__stubPUSHACC7>:
     a23:	4d 89 6f f8          	mov    %r13,-0x8(%r15)
     a27:	49 89 ee             	mov    %rbp,%r14
     a2a:	4d 8b 6f 30          	mov    0x30(%r15),%r13
     a2e:	49 83 ef 08          	sub    $0x8,%r15
     a32:	e9 91 f8 ff ff       	jmp    2c8 <__stubCHECK_SIGNALS+0x12f>

0000000000000a37 <__stubPOP>:
     a37:	49 63 46 04          	movslq 0x4(%r14),%rax
     a3b:	49 83 c6 08          	add    $0x8,%r14
     a3f:	4d 8d 3c c7          	lea    (%r15,%rax,8),%r15
     a43:	e9 80 f8 ff ff       	jmp    2c8 <__stubCHECK_SIGNALS+0x12f>

0000000000000a48 <__stubASSIGN>:
     a48:	49 63 46 04          	movslq 0x4(%r14),%rax
     a4c:	49 83 c6 08          	add    $0x8,%r14
     a50:	4d 89 2c c7          	mov    %r13,(%r15,%rax,8)
     a54:	41 bd 01 00 00 00    	mov    $0x1,%r13d
     a5a:	e9 69 f8 ff ff       	jmp    2c8 <__stubCHECK_SIGNALS+0x12f>

0000000000000a5f <__stubENVACC1>:
     a5f:	48 8b 44 24 18       	mov    0x18(%rsp),%rax
     a64:	49 89 ee             	mov    %rbp,%r14
     a67:	4c 8b 68 08          	mov    0x8(%rax),%r13
     a6b:	e9 58 f8 ff ff       	jmp    2c8 <__stubCHECK_SIGNALS+0x12f>

0000000000000a70 <__stubENVACC2>:
     a70:	48 8b 44 24 18       	mov    0x18(%rsp),%rax
     a75:	49 89 ee             	mov    %rbp,%r14
     a78:	4c 8b 68 10          	mov    0x10(%rax),%r13
     a7c:	e9 47 f8 ff ff       	jmp    2c8 <__stubCHECK_SIGNALS+0x12f>

0000000000000a81 <__stubENVACC3>:
     a81:	48 8b 44 24 18       	mov    0x18(%rsp),%rax
     a86:	49 89 ee             	mov    %rbp,%r14
     a89:	4c 8b 68 18          	mov    0x18(%rax),%r13
     a8d:	e9 36 f8 ff ff       	jmp    2c8 <__stubCHECK_SIGNALS+0x12f>

0000000000000a92 <__stubPUSHACC2>:
     a92:	4d 89 6f f8          	mov    %r13,-0x8(%r15)
     a96:	49 89 ee             	mov    %rbp,%r14
     a99:	4d 8b 6f 08          	mov    0x8(%r15),%r13
     a9d:	49 83 ef 08          	sub    $0x8,%r15
     aa1:	e9 22 f8 ff ff       	jmp    2c8 <__stubCHECK_SIGNALS+0x12f>

0000000000000aa6 <__stubPUSHACC3>:
     aa6:	4d 89 6f f8          	mov    %r13,-0x8(%r15)
     aaa:	49 89 ee             	mov    %rbp,%r14
     aad:	4d 8b 6f 10          	mov    0x10(%r15),%r13
     ab1:	49 83 ef 08          	sub    $0x8,%r15
     ab5:	e9 0e f8 ff ff       	jmp    2c8 <__stubCHECK_SIGNALS+0x12f>

0000000000000aba <__stubPUSHACC4>:
     aba:	4d 89 6f f8          	mov    %r13,-0x8(%r15)
     abe:	49 89 ee             	mov    %rbp,%r14
     ac1:	4d 8b 6f 18          	mov    0x18(%r15),%r13
     ac5:	49 83 ef 08          	sub    $0x8,%r15
     ac9:	e9 fa f7 ff ff       	jmp    2c8 <__stubCHECK_SIGNALS+0x12f>

0000000000000ace <__stubPUSHACC5>:
     ace:	4d 89 6f f8          	mov    %r13,-0x8(%r15)
     ad2:	49 89 ee             	mov    %rbp,%r14
     ad5:	4d 8b 6f 20          	mov    0x20(%r15),%r13
     ad9:	49 83 ef 08          	sub    $0x8,%r15
     add:	e9 e6 f7 ff ff       	jmp    2c8 <__stubCHECK_SIGNALS+0x12f>

0000000000000ae2 <__stubASRINT>:
     ae2:	49 8b 0f             	mov    (%r15),%rcx
     ae5:	49 89 ee             	mov    %rbp,%r14
     ae8:	49 83 c7 08          	add    $0x8,%r15
     aec:	48 d1 f9             	sar    %rcx
     aef:	49 d3 fd             	sar    %cl,%r13
     af2:	49 83 cd 01          	or     $0x1,%r13
     af6:	e9 cd f7 ff ff       	jmp    2c8 <__stubCHECK_SIGNALS+0x12f>
     afb:	4d 39 2f             	cmp    %r13,(%r15)
     afe:	49 8d 47 08          	lea    0x8(%r15),%rax
     b02:	49 89 ee             	mov    %rbp,%r14
     b05:	41 bd 01 00 00 00    	mov    $0x1,%r13d
     b0b:	49 89 c7             	mov    %rax,%r15
     b0e:	0f 85 b4 f7 ff ff    	jne    2c8 <__stubCHECK_SIGNALS+0x12f>
     b14:	41 bd 03 00 00 00    	mov    $0x3,%r13d
     b1a:	e9 a9 f7 ff ff       	jmp    2c8 <__stubCHECK_SIGNALS+0x12f>
     b1f:	4d 39 2f             	cmp    %r13,(%r15)
     b22:	49 8d 47 08          	lea    0x8(%r15),%rax
     b26:	49 89 ee             	mov    %rbp,%r14
     b29:	41 bd 01 00 00 00    	mov    $0x1,%r13d
     b2f:	49 89 c7             	mov    %rax,%r15
     b32:	0f 84 90 f7 ff ff    	je     2c8 <__stubCHECK_SIGNALS+0x12f>
     b38:	41 bd 03 00 00 00    	mov    $0x3,%r13d
     b3e:	e9 85 f7 ff ff       	jmp    2c8 <__stubCHECK_SIGNALS+0x12f>
     b43:	4d 39 2f             	cmp    %r13,(%r15)
     b46:	49 8d 47 08          	lea    0x8(%r15),%rax
     b4a:	49 89 ee             	mov    %rbp,%r14
     b4d:	41 bd 01 00 00 00    	mov    $0x1,%r13d
     b53:	49 89 c7             	mov    %rax,%r15
     b56:	0f 8e 6c f7 ff ff    	jle    2c8 <__stubCHECK_SIGNALS+0x12f>
     b5c:	41 bd 03 00 00 00    	mov    $0x3,%r13d
     b62:	e9 61 f7 ff ff       	jmp    2c8 <__stubCHECK_SIGNALS+0x12f>
     b67:	4d 39 2f             	cmp    %r13,(%r15)
     b6a:	49 8d 47 08          	lea    0x8(%r15),%rax
     b6e:	49 89 ee             	mov    %rbp,%r14
     b71:	41 bd 01 00 00 00    	mov    $0x1,%r13d
     b77:	49 89 c7             	mov    %rax,%r15
     b7a:	0f 8c 48 f7 ff ff    	jl     2c8 <__stubCHECK_SIGNALS+0x12f>
     b80:	41 bd 03 00 00 00    	mov    $0x3,%r13d
     b86:	e9 3d f7 ff ff       	jmp    2c8 <__stubCHECK_SIGNALS+0x12f>
     b8b:	4d 39 2f             	cmp    %r13,(%r15)
     b8e:	49 8d 47 08          	lea    0x8(%r15),%rax
     b92:	49 89 ee             	mov    %rbp,%r14
     b95:	41 bd 01 00 00 00    	mov    $0x1,%r13d
     b9b:	49 89 c7             	mov    %rax,%r15
     b9e:	0f 8d 24 f7 ff ff    	jge    2c8 <__stubCHECK_SIGNALS+0x12f>
     ba4:	41 bd 03 00 00 00    	mov    $0x3,%r13d
     baa:	e9 19 f7 ff ff       	jmp    2c8 <__stubCHECK_SIGNALS+0x12f>
     baf:	4d 39 2f             	cmp    %r13,(%r15)
     bb2:	49 8d 47 08          	lea    0x8(%r15),%rax
     bb6:	49 89 ee             	mov    %rbp,%r14
     bb9:	41 bd 01 00 00 00    	mov    $0x1,%r13d
     bbf:	49 89 c7             	mov    %rax,%r15
     bc2:	0f 8f 00 f7 ff ff    	jg     2c8 <__stubCHECK_SIGNALS+0x12f>
     bc8:	41 bd 03 00 00 00    	mov    $0x3,%r13d
     bce:	e9 f5 f6 ff ff       	jmp    2c8 <__stubCHECK_SIGNALS+0x12f>

0000000000000bd3 <__stubOFFSETINT>:
     bd3:	41 8b 46 04          	mov    0x4(%r14),%eax
     bd7:	49 83 c6 08          	add    $0x8,%r14
     bdb:	01 c0                	add    %eax,%eax
     bdd:	48 98                	cltq   
     bdf:	49 01 c5             	add    %rax,%r13
     be2:	e9 e1 f6 ff ff       	jmp    2c8 <__stubCHECK_SIGNALS+0x12f>

0000000000000be7 <__stubOFFSETREF>:
     be7:	41 8b 46 04          	mov    0x4(%r14),%eax
     beb:	49 83 c6 08          	add    $0x8,%r14
     bef:	01 c0                	add    %eax,%eax
     bf1:	48 98                	cltq   
     bf3:	49 01 45 00          	add    %rax,0x0(%r13)
     bf7:	41 bd 01 00 00 00    	mov    $0x1,%r13d
     bfd:	e9 c6 f6 ff ff       	jmp    2c8 <__stubCHECK_SIGNALS+0x12f>

0000000000000c02 <__stubISINT>:
     c02:	4d 01 ed             	add    %r13,%r13
     c05:	49 89 ee             	mov    %rbp,%r14
     c08:	41 83 e5 02          	and    $0x2,%r13d
     c0c:	49 83 c5 01          	add    $0x1,%r13
     c10:	e9 b3 f6 ff ff       	jmp    2c8 <__stubCHECK_SIGNALS+0x12f>

0000000000000c15 <__stubGETMETHOD>:
     c15:	49 8b 17             	mov    (%r15),%rdx
     c18:	4c 89 e8             	mov    %r13,%rax
     c1b:	49 89 ee             	mov    %rbp,%r14
     c1e:	48 d1 f8             	sar    %rax
     c21:	48 8b 12             	mov    (%rdx),%rdx
     c24:	48 98                	cltq   
     c26:	4c 8b 2c c2          	mov    (%rdx,%rax,8),%r13
     c2a:	e9 99 f6 ff ff       	jmp    2c8 <__stubCHECK_SIGNALS+0x12f>
     c2f:	4c 89 e8             	mov    %r13,%rax
     c32:	49 63 56 04          	movslq 0x4(%r14),%rdx
     c36:	48 d1 f8             	sar    %rax
     c39:	48 39 c2             	cmp    %rax,%rdx
     c3c:	0f 84 4c 1d 00 00    	je     298e <__stubAPPTERM3+0x5b8>
     c42:	49 83 c6 0c          	add    $0xc,%r14
     c46:	e9 7d f6 ff ff       	jmp    2c8 <__stubCHECK_SIGNALS+0x12f>
     c4b:	4c 89 e8             	mov    %r13,%rax
     c4e:	49 63 56 04          	movslq 0x4(%r14),%rdx
     c52:	48 d1 f8             	sar    %rax
     c55:	48 39 c2             	cmp    %rax,%rdx
     c58:	0f 84 04 1a 00 00    	je     2662 <__stubAPPTERM3+0x28c>
     c5e:	49 63 46 08          	movslq 0x8(%r14),%rax
     c62:	4d 8d 74 86 08       	lea    0x8(%r14,%rax,4),%r14
     c67:	e9 5c f6 ff ff       	jmp    2c8 <__stubCHECK_SIGNALS+0x12f>
     c6c:	4c 89 e8             	mov    %r13,%rax
     c6f:	49 63 56 04          	movslq 0x4(%r14),%rdx
     c73:	48 d1 f8             	sar    %rax
     c76:	48 39 c2             	cmp    %rax,%rdx
     c79:	0f 8f d1 19 00 00    	jg     2650 <__stubAPPTERM3+0x27a>
     c7f:	49 63 46 08          	movslq 0x8(%r14),%rax
     c83:	4d 8d 74 86 08       	lea    0x8(%r14,%rax,4),%r14
     c88:	e9 3b f6 ff ff       	jmp    2c8 <__stubCHECK_SIGNALS+0x12f>
     c8d:	4c 89 e8             	mov    %r13,%rax
     c90:	49 63 56 04          	movslq 0x4(%r14),%rdx
     c94:	48 d1 f8             	sar    %rax
     c97:	48 39 c2             	cmp    %rax,%rdx
     c9a:	0f 8d 2c 19 00 00    	jge    25cc <__stubAPPTERM3+0x1f6>
     ca0:	49 63 46 08          	movslq 0x8(%r14),%rax
     ca4:	4d 8d 74 86 08       	lea    0x8(%r14,%rax,4),%r14
     ca9:	e9 1a f6 ff ff       	jmp    2c8 <__stubCHECK_SIGNALS+0x12f>
     cae:	4d 39 2f             	cmp    %r13,(%r15)
     cb1:	49 8d 47 08          	lea    0x8(%r15),%rax
     cb5:	49 89 ee             	mov    %rbp,%r14
     cb8:	41 bd 01 00 00 00    	mov    $0x1,%r13d
     cbe:	49 89 c7             	mov    %rax,%r15
     cc1:	0f 87 01 f6 ff ff    	ja     2c8 <__stubCHECK_SIGNALS+0x12f>
     cc7:	41 bd 03 00 00 00    	mov    $0x3,%r13d
     ccd:	e9 f6 f5 ff ff       	jmp    2c8 <__stubCHECK_SIGNALS+0x12f>
     cd2:	4c 89 e8             	mov    %r13,%rax
     cd5:	49 63 56 04          	movslq 0x4(%r14),%rdx
     cd9:	48 d1 f8             	sar    %rax
     cdc:	48 39 c2             	cmp    %rax,%rdx
     cdf:	0f 8c 74 19 00 00    	jl     2659 <__stubAPPTERM3+0x283>
     ce5:	49 63 46 08          	movslq 0x8(%r14),%rax
     ce9:	4d 8d 74 86 08       	lea    0x8(%r14,%rax,4),%r14
     cee:	e9 d5 f5 ff ff       	jmp    2c8 <__stubCHECK_SIGNALS+0x12f>
     cf3:	4d 39 2f             	cmp    %r13,(%r15)
     cf6:	49 8d 47 08          	lea    0x8(%r15),%rax
     cfa:	49 89 ee             	mov    %rbp,%r14
     cfd:	41 bd 01 00 00 00    	mov    $0x1,%r13d
     d03:	49 89 c7             	mov    %rax,%r15
     d06:	0f 86 bc f5 ff ff    	jbe    2c8 <__stubCHECK_SIGNALS+0x12f>
     d0c:	41 bd 03 00 00 00    	mov    $0x3,%r13d
     d12:	e9 b1 f5 ff ff       	jmp    2c8 <__stubCHECK_SIGNALS+0x12f>
     d17:	4c 89 e8             	mov    %r13,%rax
     d1a:	49 63 56 04          	movslq 0x4(%r14),%rdx
     d1e:	48 d1 f8             	sar    %rax
     d21:	48 39 c2             	cmp    %rax,%rdx
     d24:	0f 8e b4 18 00 00    	jle    25de <__stubAPPTERM3+0x208>
     d2a:	49 63 46 08          	movslq 0x8(%r14),%rax
     d2e:	4d 8d 74 86 08       	lea    0x8(%r14,%rax,4),%r14
     d33:	e9 90 f5 ff ff       	jmp    2c8 <__stubCHECK_SIGNALS+0x12f>
     d38:	4c 89 e8             	mov    %r13,%rax
     d3b:	49 63 56 04          	movslq 0x4(%r14),%rdx
     d3f:	48 d1 f8             	sar    %rax
     d42:	48 39 c2             	cmp    %rax,%rdx
     d45:	0f 82 8a 18 00 00    	jb     25d5 <__stubAPPTERM3+0x1ff>
     d4b:	49 63 46 08          	movslq 0x8(%r14),%rax
     d4f:	4d 8d 74 86 08       	lea    0x8(%r14,%rax,4),%r14
     d54:	e9 6f f5 ff ff       	jmp    2c8 <__stubCHECK_SIGNALS+0x12f>
     d59:	4c 89 e8             	mov    %r13,%rax
     d5c:	49 63 56 04          	movslq 0x4(%r14),%rdx
     d60:	48 d1 f8             	sar    %rax
     d63:	48 39 c2             	cmp    %rax,%rdx
     d66:	0f 83 7b 18 00 00    	jae    25e7 <__stubAPPTERM3+0x211>
     d6c:	49 63 46 08          	movslq 0x8(%r14),%rax
     d70:	4d 8d 74 86 08       	lea    0x8(%r14,%rax,4),%r14
     d75:	e9 4e f5 ff ff       	jmp    2c8 <__stubCHECK_SIGNALS+0x12f>

0000000000000d7a <__stubGETPUBMET>:
     d7a:	49 8b 4d 00          	mov    0x0(%r13),%rcx
     d7e:	4d 89 6f f8          	mov    %r13,-0x8(%r15)
     d82:	49 8d 77 f8          	lea    -0x8(%r15),%rsi
     d86:	49 63 46 04          	movslq 0x4(%r14),%rax
     d8a:	4c 8d 44 00 01       	lea    0x1(%rax,%rax,1),%r8
     d8f:	49 63 46 08          	movslq 0x8(%r14),%rax
     d93:	48 23 41 08          	and    0x8(%rcx),%rax
     d97:	48 01 c8             	add    %rcx,%rax
     d9a:	4c 39 40 18          	cmp    %r8,0x18(%rax)
     d9e:	0f 85 e7 17 00 00    	jne    258b <__stubAPPTERM3+0x1b5>
     da4:	4c 8b 68 10          	mov    0x10(%rax),%r13
     da8:	49 83 c6 0c          	add    $0xc,%r14
     dac:	49 89 f7             	mov    %rsi,%r15
     daf:	e9 14 f5 ff ff       	jmp    2c8 <__stubCHECK_SIGNALS+0x12f>

0000000000000db4 <__stubGETDYNMET>:
     db4:	49 8b 07             	mov    (%r15),%rax
     db7:	ba 03 00 00 00       	mov    $0x3,%edx
     dbc:	48 8b 08             	mov    (%rax),%rcx
     dbf:	8b 31                	mov    (%rcx),%esi
     dc1:	eb 1c                	jmp    ddf <__stubGETDYNMET+0x2b>
     dc3:	0f 1f 44 00 00       	nopl   0x0(%rax,%rax,1)
     dc8:	8d 04 32             	lea    (%rdx,%rsi,1),%eax
     dcb:	d1 f8                	sar    %eax
     dcd:	83 c8 01             	or     $0x1,%eax
     dd0:	48 63 f8             	movslq %eax,%rdi
     dd3:	4c 39 2c f9          	cmp    %r13,(%rcx,%rdi,8)
     dd7:	0f 8f 27 16 00 00    	jg     2404 <__stubAPPTERM3+0x2e>
     ddd:	89 c2                	mov    %eax,%edx
     ddf:	39 f2                	cmp    %esi,%edx
     de1:	7c e5                	jl     dc8 <__stubGETDYNMET+0x14>
     de3:	8d 42 ff             	lea    -0x1(%rdx),%eax
     de6:	49 89 ee             	mov    %rbp,%r14
     de9:	48 98                	cltq   
     deb:	4c 8b 2c c1          	mov    (%rcx,%rax,8),%r13
     def:	e9 d4 f4 ff ff       	jmp    2c8 <__stubCHECK_SIGNALS+0x12f>

0000000000000df4 <__stubADDINT>:
     df4:	49 8b 07             	mov    (%r15),%rax
     df7:	49 89 ee             	mov    %rbp,%r14
     dfa:	49 83 c7 08          	add    $0x8,%r15
     dfe:	4d 8d 6c 05 ff       	lea    -0x1(%r13,%rax,1),%r13
     e03:	e9 c0 f4 ff ff       	jmp    2c8 <__stubCHECK_SIGNALS+0x12f>

0000000000000e08 <__stubSUBINT>:
     e08:	49 83 c5 01          	add    $0x1,%r13
     e0c:	49 83 c7 08          	add    $0x8,%r15
     e10:	4d 2b 6f f8          	sub    -0x8(%r15),%r13
     e14:	49 89 ee             	mov    %rbp,%r14
     e17:	e9 ac f4 ff ff       	jmp    2c8 <__stubCHECK_SIGNALS+0x12f>

0000000000000e1c <__stubMULINT>:
     e1c:	49 8b 07             	mov    (%r15),%rax
     e1f:	49 d1 fd             	sar    %r13
     e22:	49 83 c7 08          	add    $0x8,%r15
     e26:	49 89 ee             	mov    %rbp,%r14
     e29:	48 d1 f8             	sar    %rax
     e2c:	49 0f af c5          	imul   %r13,%rax
     e30:	4c 8d 6c 00 01       	lea    0x1(%rax,%rax,1),%r13
     e35:	e9 8e f4 ff ff       	jmp    2c8 <__stubCHECK_SIGNALS+0x12f>

0000000000000e3a <__stubDIVINT>:
     e3a:	49 8b 0f             	mov    (%r15),%rcx
     e3d:	49 8d 77 08          	lea    0x8(%r15),%rsi
     e41:	48 d1 f9             	sar    %rcx
     e44:	0f 84 a8 1f 00 00    	je     2df2 <__stubAPPTERM3+0xa1c>
     e4a:	4c 89 e8             	mov    %r13,%rax
     e4d:	49 89 f7             	mov    %rsi,%r15
     e50:	49 89 ee             	mov    %rbp,%r14
     e53:	48 d1 f8             	sar    %rax
     e56:	48 99                	cqto   
     e58:	48 f7 f9             	idiv   %rcx
     e5b:	4c 8d 6c 00 01       	lea    0x1(%rax,%rax,1),%r13
     e60:	e9 63 f4 ff ff       	jmp    2c8 <__stubCHECK_SIGNALS+0x12f>

0000000000000e65 <__stubMODINT>:
     e65:	49 8b 0f             	mov    (%r15),%rcx
     e68:	49 8d 77 08          	lea    0x8(%r15),%rsi
     e6c:	48 d1 f9             	sar    %rcx
     e6f:	0f 84 7d 1f 00 00    	je     2df2 <__stubAPPTERM3+0xa1c>
     e75:	4c 89 e8             	mov    %r13,%rax
     e78:	49 89 f7             	mov    %rsi,%r15
     e7b:	49 89 ee             	mov    %rbp,%r14
     e7e:	48 d1 f8             	sar    %rax
     e81:	48 99                	cqto   
     e83:	48 f7 f9             	idiv   %rcx
     e86:	4c 8d 6c 12 01       	lea    0x1(%rdx,%rdx,1),%r13
     e8b:	e9 38 f4 ff ff       	jmp    2c8 <__stubCHECK_SIGNALS+0x12f>
     e90:	4c 89 f8             	mov    %r15,%rax
     e93:	4d 89 f7             	mov    %r14,%r15
     e96:	49 89 c6             	mov    %rax,%r14

0000000000000e99 <__stubRESUME>:
     e99:	48 8b 30             	mov    (%rax),%rsi
     e9c:	48 8b 78 08          	mov    0x8(%rax),%rdi
     ea0:	48 8d 58 e8          	lea    -0x18(%rax),%rbx
     ea4:	48 8b 44 24 08       	mov    0x8(%rsp),%rax
     ea9:	48 8b 80 d8 01 00 00 	mov    0x1d8(%rax),%rax
     eb0:	49 c7 46 f0 01 00 00 	movq   $0x1,-0x10(%r14)
     eb7:	00 
     eb8:	49 89 6e f8          	mov    %rbp,-0x8(%r14)
     ebc:	48 8d 44 00 01       	lea    0x1(%rax,%rax,1),%rax
     ec1:	4d 89 66 08          	mov    %r12,0x8(%r14)
     ec5:	49 89 46 e8          	mov    %rax,-0x18(%r14)
     ec9:	48 8b 44 24 18       	mov    0x18(%rsp),%rax
     ece:	49 89 06             	mov    %rax,(%r14)
     ed1:	41 f6 c5 01          	test   $0x1,%r13b
     ed5:	0f 84 0c 20 00 00    	je     2ee7 <__stubAPPTERM3+0xb11>
     edb:	49 8d 4d ff          	lea    -0x1(%r13),%rcx
     edf:	48 89 c8             	mov    %rcx,%rax
     ee2:	49 83 fd 01          	cmp    $0x1,%r13
     ee6:	0f 84 78 16 00 00    	je     2564 <__stubAPPTERM3+0x18e>
     eec:	48 8b 50 10          	mov    0x10(%rax),%rdx
     ef0:	48 8b 42 18          	mov    0x18(%rdx),%rax
     ef4:	48 85 c0             	test   %rax,%rax
     ef7:	75 f3                	jne    eec <__stubRESUME+0x53>
     ef9:	48 8b 05 00 00 00 00 	mov    0x0(%rip),%rax        # f00 <__stubRESUME+0x67>
     f00:	49 89 f5             	mov    %rsi,%r13
     f03:	64 48 8b 00          	mov    %fs:(%rax),%rax
     f07:	48 c7 44 24 10 00 00 	movq   $0x0,0x10(%rsp)
     f0e:	00 00 
     f10:	48 8b 40 20          	mov    0x20(%rax),%rax
     f14:	48 89 42 18          	mov    %rax,0x18(%rdx)
     f18:	48 8b 54 24 08       	mov    0x8(%rsp),%rdx
     f1d:	48 8b 42 20          	mov    0x20(%rdx),%rax
     f21:	48 89 18             	mov    %rbx,(%rax)
     f24:	48 89 4a 20          	mov    %rcx,0x20(%rdx)
     f28:	4c 8b 31             	mov    (%rcx),%r14
     f2b:	49 8b 06             	mov    (%r14),%rax
     f2e:	48 d1 f8             	sar    %rax
     f31:	48 89 82 d8 01 00 00 	mov    %rax,0x1d8(%rdx)
     f38:	49 89 3e             	mov    %rdi,(%r14)
     f3b:	4c 8b 3e             	mov    (%rsi),%r15
     f3e:	e9 38 f2 ff ff       	jmp    17b <caml_interprete+0x17b>
     f43:	4c 89 f8             	mov    %r15,%rax
     f46:	4d 89 f7             	mov    %r14,%r15
     f49:	49 89 c6             	mov    %rax,%r14

0000000000000f4c <__stubRESUMETERM>:
     f4c:	48 8b 30             	mov    (%rax),%rsi
     f4f:	48 8b 78 08          	mov    0x8(%rax),%rdi
     f53:	49 63 47 04          	movslq 0x4(%r15),%rax
     f57:	49 8d 5c c6 f0       	lea    -0x10(%r14,%rax,8),%rbx
     f5c:	48 8b 44 24 08       	mov    0x8(%rsp),%rax
     f61:	48 8b 80 d8 01 00 00 	mov    0x1d8(%rax),%rax
     f68:	4c 89 63 08          	mov    %r12,0x8(%rbx)
     f6c:	48 8d 44 00 01       	lea    0x1(%rax,%rax,1),%rax
     f71:	48 89 03             	mov    %rax,(%rbx)
     f74:	e9 58 ff ff ff       	jmp    ed1 <__stubRESUME+0x38>

0000000000000f79 <__stubPUSHCONST0>:
     f79:	4d 89 6f f8          	mov    %r13,-0x8(%r15)
     f7d:	49 89 ee             	mov    %rbp,%r14
     f80:	49 83 ef 08          	sub    $0x8,%r15
     f84:	41 bd 01 00 00 00    	mov    $0x1,%r13d
     f8a:	e9 39 f3 ff ff       	jmp    2c8 <__stubCHECK_SIGNALS+0x12f>

0000000000000f8f <__stubPUSHCONST1>:
     f8f:	4d 89 6f f8          	mov    %r13,-0x8(%r15)
     f93:	49 89 ee             	mov    %rbp,%r14
     f96:	49 83 ef 08          	sub    $0x8,%r15
     f9a:	41 bd 03 00 00 00    	mov    $0x3,%r13d
     fa0:	e9 23 f3 ff ff       	jmp    2c8 <__stubCHECK_SIGNALS+0x12f>

0000000000000fa5 <__stubPUSHCONST2>:
     fa5:	4d 89 6f f8          	mov    %r13,-0x8(%r15)
     fa9:	49 89 ee             	mov    %rbp,%r14
     fac:	49 83 ef 08          	sub    $0x8,%r15
     fb0:	41 bd 05 00 00 00    	mov    $0x5,%r13d
     fb6:	e9 0d f3 ff ff       	jmp    2c8 <__stubCHECK_SIGNALS+0x12f>

0000000000000fbb <__stubPUSHCONST3>:
     fbb:	4d 89 6f f8          	mov    %r13,-0x8(%r15)
     fbf:	49 89 ee             	mov    %rbp,%r14
     fc2:	49 83 ef 08          	sub    $0x8,%r15
     fc6:	41 bd 07 00 00 00    	mov    $0x7,%r13d
     fcc:	e9 f7 f2 ff ff       	jmp    2c8 <__stubCHECK_SIGNALS+0x12f>

0000000000000fd1 <__stubNEGINT>:
     fd1:	b8 02 00 00 00       	mov    $0x2,%eax
     fd6:	49 89 ee             	mov    %rbp,%r14
     fd9:	4c 29 e8             	sub    %r13,%rax
     fdc:	49 89 c5             	mov    %rax,%r13
     fdf:	e9 e4 f2 ff ff       	jmp    2c8 <__stubCHECK_SIGNALS+0x12f>
     fe4:	4c 89 f8             	mov    %r15,%rax
     fe7:	4d 89 f7             	mov    %r14,%r15
     fea:	49 89 c6             	mov    %rax,%r14

0000000000000fed <__stubRERAISE>:
     fed:	48 8b 44 24 08       	mov    0x8(%rsp),%rax
     ff2:	48 8b b8 e0 01 00 00 	mov    0x1e0(%rax),%rdi
     ff9:	48 39 b8 d8 01 00 00 	cmp    %rdi,0x1d8(%rax)
    1000:	0f 8d 5e 19 00 00    	jge    2964 <__stubAPPTERM3+0x58e>
    1006:	48 8b 44 24 08       	mov    0x8(%rsp),%rax
    100b:	48 83 b8 c0 00 00 00 	cmpq   $0x0,0xc0(%rax)
    1012:	00 
    1013:	0f 84 f3 f0 ff ff    	je     10c <caml_interprete+0x10c>
    1019:	4d 89 7e f8          	mov    %r15,-0x8(%r14)
    101d:	49 8d 5e f8          	lea    -0x8(%r14),%rbx
    1021:	ba 01 00 00 00       	mov    $0x1,%edx
    1026:	48 89 de             	mov    %rbx,%rsi
    1029:	4c 89 ef             	mov    %r13,%rdi
    102c:	49 89 de             	mov    %rbx,%r14
    102f:	e8 00 00 00 00       	call   1034 <__stubRERAISE+0x47>
    1034:	48 8b 44 24 08       	mov    0x8(%rsp),%rax
    1039:	48 8b 80 d8 01 00 00 	mov    0x1d8(%rax),%rax
    1040:	e9 d3 f0 ff ff       	jmp    118 <caml_interprete+0x118>
    1045:	4d 89 fe             	mov    %r15,%r14

0000000000001048 <__stubRAISE_NOTRACE>:
    1048:	48 8b 5c 24 08       	mov    0x8(%rsp),%rbx
    104d:	48 8b 83 d8 01 00 00 	mov    0x1d8(%rbx),%rax
    1054:	48 3b 83 e0 01 00 00 	cmp    0x1e0(%rbx),%rax
    105b:	0f 8c b7 f0 ff ff    	jl     118 <caml_interprete+0x118>
    1061:	be 01 00 00 00       	mov    $0x1,%esi
    1066:	bf 04 00 00 00       	mov    $0x4,%edi
    106b:	e8 00 00 00 00       	call   1070 <__stubRAISE_NOTRACE+0x28>
    1070:	48 8b 83 d8 01 00 00 	mov    0x1d8(%rbx),%rax
    1077:	e9 9c f0 ff ff       	jmp    118 <caml_interprete+0x118>
    107c:	4c 89 f8             	mov    %r15,%rax
    107f:	4d 89 f7             	mov    %r14,%r15
    1082:	49 89 c6             	mov    %rax,%r14

0000000000001085 <__stubPERFORM>:
    1085:	48 8b 44 24 08       	mov    0x8(%rsp),%rax
    108a:	48 8b 78 20          	mov    0x20(%rax),%rdi
    108e:	48 8b 47 10          	mov    0x10(%rdi),%rax
    1092:	48 8b 48 18          	mov    0x18(%rax),%rcx
    1096:	48 85 c9             	test   %rcx,%rcx
    1099:	0f 84 b7 1a 00 00    	je     2b56 <__stubAPPTERM3+0x780>
    109f:	48 8b 05 00 00 00 00 	mov    0x0(%rip),%rax        # 10a6 <__stubPERFORM+0x21>
    10a6:	4d 89 f7             	mov    %r14,%r15
    10a9:	4c 89 ee             	mov    %r13,%rsi
    10ac:	4d 89 e6             	mov    %r12,%r14
    10af:	49 89 cd             	mov    %rcx,%r13
    10b2:	49 89 fc             	mov    %rdi,%r12
    10b5:	64 48 8b 18          	mov    %fs:(%rax),%rbx
    10b9:	48 8b 43 08          	mov    0x8(%rbx),%rax
    10bd:	48 83 e8 10          	sub    $0x10,%rax
    10c1:	48 89 43 08          	mov    %rax,0x8(%rbx)
    10c5:	48 89 b4 24 58 01 00 	mov    %rsi,0x158(%rsp)
    10cc:	00 
    10cd:	e8 00 00 00 00       	call   10d2 <__stubPERFORM+0x4d>
    10d2:	48 8b 43 08          	mov    0x8(%rbx),%rax
    10d6:	48 8b 3b             	mov    (%rbx),%rdi
    10d9:	48 8b b4 24 58 01 00 	mov    0x158(%rsp),%rsi
    10e0:	00 
    10e1:	48 39 f8             	cmp    %rdi,%rax
    10e4:	0f 82 18 1a 00 00    	jb     2b02 <__stubAPPTERM3+0x72c>
    10ea:	48 c7 00 f5 04 00 00 	movq   $0x4f5,(%rax)
    10f1:	48 8b 53 08          	mov    0x8(%rbx),%rdx
    10f5:	4c 89 e9             	mov    %r13,%rcx
    10f8:	4c 89 e7             	mov    %r12,%rdi
    10fb:	48 8b 5c 24 08       	mov    0x8(%rsp),%rbx
    1100:	49 89 f5             	mov    %rsi,%r13
    1103:	48 b8 d7 d6 10 d7 d7 	movabs $0xd710d7d7d710d6d7,%rax
    110a:	d7 10 d7 
    110d:	48 89 42 08          	mov    %rax,0x8(%rdx)
    1111:	48 8d 72 08          	lea    0x8(%rdx),%rsi
    1115:	48 8b 83 d8 01 00 00 	mov    0x1d8(%rbx),%rax
    111c:	49 89 6f e8          	mov    %rbp,-0x18(%r15)
    1120:	4d 89 77 f8          	mov    %r14,-0x8(%r15)
    1124:	48 8d 44 00 01       	lea    0x1(%rax,%rax,1),%rax
    1129:	49 89 47 e0          	mov    %rax,-0x20(%r15)
    112d:	48 8b 44 24 18       	mov    0x18(%rsp),%rax
    1132:	49 89 47 f0          	mov    %rax,-0x10(%r15)
    1136:	49 8d 47 e0          	lea    -0x20(%r15),%rax
    113a:	48 89 07             	mov    %rax,(%rdi)
    113d:	48 89 4b 20          	mov    %rcx,0x20(%rbx)
    1141:	48 8b 01             	mov    (%rcx),%rax
    1144:	48 8b 4f 10          	mov    0x10(%rdi),%rcx
    1148:	48 c7 41 18 00 00 00 	movq   $0x0,0x18(%rcx)
    114f:	00 
    1150:	40 f6 c7 01          	test   $0x1,%dil
    1154:	0f 85 a5 1d 00 00    	jne    2eff <__stubAPPTERM3+0xb29>
    115a:	48 8d 4f 01          	lea    0x1(%rdi),%rcx
    115e:	48 8b 5c 24 08       	mov    0x8(%rsp),%rbx
    1163:	4c 8d 70 f8          	lea    -0x8(%rax),%r14
    1167:	48 89 4a 08          	mov    %rcx,0x8(%rdx)
    116b:	48 8b 10             	mov    (%rax),%rdx
    116e:	48 d1 fa             	sar    %rdx
    1171:	48 89 93 d8 01 00 00 	mov    %rdx,0x1d8(%rbx)
    1178:	48 8b 50 08          	mov    0x8(%rax),%rdx
    117c:	4c 89 68 f8          	mov    %r13,-0x8(%rax)
    1180:	48 89 30             	mov    %rsi,(%rax)
    1183:	48 d1 fa             	sar    %rdx
    1186:	48 89 48 08          	mov    %rcx,0x8(%rax)
    118a:	48 8b 47 10          	mov    0x10(%rdi),%rax
    118e:	4c 8b 68 10          	mov    0x10(%rax),%r13
    1192:	48 8d 42 02          	lea    0x2(%rdx),%rax
    1196:	4d 8b 7d 00          	mov    0x0(%r13),%r15
    119a:	48 89 44 24 10       	mov    %rax,0x10(%rsp)
    119f:	e9 d7 ef ff ff       	jmp    17b <caml_interprete+0x17b>

00000000000011a4 <__stubEVENT>:
    11a4:	48 83 2d 00 00 00 00 	subq   $0x1,0x0(%rip)        # 11ac <__stubEVENT+0x8>
    11ab:	01 
    11ac:	75 6c                	jne    121a <__stubEVENT+0x76>
    11ae:	48 8b 7c 24 18       	mov    0x18(%rsp),%rdi
    11b3:	4d 89 6f e0          	mov    %r13,-0x20(%r15)
    11b7:	49 8d 47 e0          	lea    -0x20(%r15),%rax
    11bb:	be 01 00 00 00       	mov    $0x1,%esi
    11c0:	4d 89 77 e8          	mov    %r14,-0x18(%r15)
    11c4:	49 89 7f f0          	mov    %rdi,-0x10(%r15)
    11c8:	48 8b 7c 24 08       	mov    0x8(%rsp),%rdi
    11cd:	4d 89 67 f8          	mov    %r12,-0x8(%r15)
    11d1:	48 8b 57 20          	mov    0x20(%rdi),%rdx
    11d5:	31 ff                	xor    %edi,%edi
    11d7:	48 89 84 24 48 01 00 	mov    %rax,0x148(%rsp)
    11de:	00 
    11df:	48 89 02             	mov    %rax,(%rdx)
    11e2:	e8 00 00 00 00       	call   11e7 <__stubEVENT+0x43>
    11e7:	48 8b 7c 24 08       	mov    0x8(%rsp),%rdi
    11ec:	48 8b 84 24 48 01 00 	mov    0x148(%rsp),%rax
    11f3:	00 
    11f4:	48 8b 57 20          	mov    0x20(%rdi),%rdx
    11f8:	48 39 02             	cmp    %rax,(%rdx)
    11fb:	0f 85 49 1c 00 00    	jne    2e4a <__stubAPPTERM3+0xa74>
    1201:	4d 39 6f e0          	cmp    %r13,-0x20(%r15)
    1205:	0f 85 27 1c 00 00    	jne    2e32 <__stubAPPTERM3+0xa5c>
    120b:	48 8b 44 24 18       	mov    0x18(%rsp),%rax
    1210:	49 39 47 f0          	cmp    %rax,-0x10(%r15)
    1214:	0f 85 00 1c 00 00    	jne    2e1a <__stubAPPTERM3+0xa44>
    121a:	4c 89 f7             	mov    %r14,%rdi
    121d:	e8 00 00 00 00       	call   1222 <__stubEVENT+0x7e>
    1222:	89 c1                	mov    %eax,%ecx
    1224:	e9 6d f1 ff ff       	jmp    396 <__stubCHECK_SIGNALS+0x1fd>

0000000000001229 <__stubBREAK>:
    1229:	48 8b 7c 24 18       	mov    0x18(%rsp),%rdi
    122e:	4d 89 6f e0          	mov    %r13,-0x20(%r15)
    1232:	49 8d 47 e0          	lea    -0x20(%r15),%rax
    1236:	be 01 00 00 00       	mov    $0x1,%esi
    123b:	4d 89 77 e8          	mov    %r14,-0x18(%r15)
    123f:	49 89 7f f0          	mov    %rdi,-0x10(%r15)
    1243:	48 8b 7c 24 08       	mov    0x8(%rsp),%rdi
    1248:	4d 89 67 f8          	mov    %r12,-0x8(%r15)
    124c:	48 8b 57 20          	mov    0x20(%rdi),%rdx
    1250:	bf 01 00 00 00       	mov    $0x1,%edi
    1255:	48 89 84 24 50 01 00 	mov    %rax,0x150(%rsp)
    125c:	00 
    125d:	48 89 02             	mov    %rax,(%rdx)
    1260:	e8 00 00 00 00       	call   1265 <__stubBREAK+0x3c>
    1265:	48 8b 7c 24 08       	mov    0x8(%rsp),%rdi
    126a:	48 8b 84 24 50 01 00 	mov    0x150(%rsp),%rax
    1271:	00 
    1272:	48 8b 57 20          	mov    0x20(%rdi),%rdx
    1276:	48 39 02             	cmp    %rax,(%rdx)
    1279:	0f 85 ff 18 00 00    	jne    2b7e <__stubAPPTERM3+0x7a8>
    127f:	4d 39 6f e0          	cmp    %r13,-0x20(%r15)
    1283:	0f 85 dd 18 00 00    	jne    2b66 <__stubAPPTERM3+0x790>
    1289:	48 8b 44 24 18       	mov    0x18(%rsp),%rax
    128e:	49 39 47 f0          	cmp    %rax,-0x10(%r15)
    1292:	74 86                	je     121a <__stubEVENT+0x76>
    1294:	ba 05 08 00 00       	mov    $0x805,%edx
    1299:	48 8d 35 00 00 00 00 	lea    0x0(%rip),%rsi        # 12a0 <__stubBREAK+0x77>
    12a0:	48 8d 3d 00 00 00 00 	lea    0x0(%rip),%rdi        # 12a7 <__stubBREAK+0x7e>
    12a7:	e8 00 00 00 00       	call   12ac <__stubBREAK+0x83>
    12ac:	0f 1f 40 00          	nopl   0x0(%rax)
    12b0:	4d 89 fe             	mov    %r15,%r14

00000000000012b3 <__stubSTOP>:
    12b3:	48 8b 54 24 30       	mov    0x30(%rsp),%rdx
    12b8:	48 8d 35 00 00 00 00 	lea    0x0(%rip),%rsi        # 12bf <__stubSTOP+0xc>
    12bf:	bf 01 00 00 00       	mov    $0x1,%edi
    12c4:	31 c0                	xor    %eax,%eax
    12c6:	e8 00 00 00 00       	call   12cb <__stubSTOP+0x18>
    12cb:	48 8b 44 24 60       	mov    0x60(%rsp),%rax
    12d0:	48 8b 40 08          	mov    0x8(%rax),%rax
    12d4:	48 89 44 24 58       	mov    %rax,0x58(%rsp)
    12d9:	48 85 c0             	test   %rax,%rax
    12dc:	0f 84 3a 11 00 00    	je     241c <__stubAPPTERM3+0x46>
    12e2:	48 8b 44 24 60       	mov    0x60(%rsp),%rax
    12e7:	4c 89 b4 24 f8 00 00 	mov    %r14,0xf8(%rsp)
    12ee:	00 
    12ef:	45 31 e4             	xor    %r12d,%r12d
    12f2:	48 8d 1d 00 00 00 00 	lea    0x0(%rip),%rbx        # 12f9 <__stubSTOP+0x46>
    12f9:	4c 89 ac 24 00 01 00 	mov    %r13,0x100(%rsp)
    1300:	00 
    1301:	48 8d 2d 00 00 00 00 	lea    0x0(%rip),%rbp        # 1308 <__stubSTOP+0x55>
    1308:	4c 8b 38             	mov    (%rax),%r15
    130b:	31 c0                	xor    %eax,%eax
    130d:	eb 29                	jmp    1338 <__stubSTOP+0x85>
    130f:	90                   	nop
    1310:	44 89 e2             	mov    %r12d,%edx
    1313:	48 8d 35 00 00 00 00 	lea    0x0(%rip),%rsi        # 131a <__stubSTOP+0x67>
    131a:	bf 01 00 00 00       	mov    $0x1,%edi
    131f:	31 c0                	xor    %eax,%eax
    1321:	e8 00 00 00 00       	call   1326 <__stubSTOP+0x73>
    1326:	41 83 c4 01          	add    $0x1,%r12d
    132a:	49 63 c4             	movslq %r12d,%rax
    132d:	48 3b 44 24 58       	cmp    0x58(%rsp),%rax
    1332:	0f 83 d4 10 00 00    	jae    240c <__stubAPPTERM3+0x36>
    1338:	48 c1 e0 04          	shl    $0x4,%rax
    133c:	4d 8d 2c 07          	lea    (%r15,%rax,1),%r13
    1340:	49 8b 55 00          	mov    0x0(%r13),%rdx
    1344:	48 85 d2             	test   %rdx,%rdx
    1347:	74 c7                	je     1310 <__stubSTOP+0x5d>
    1349:	48 89 d9             	mov    %rbx,%rcx
    134c:	48 8d 35 00 00 00 00 	lea    0x0(%rip),%rsi        # 1353 <__stubSTOP+0xa0>
    1353:	bf 01 00 00 00       	mov    $0x1,%edi
    1358:	31 c0                	xor    %eax,%eax
    135a:	e8 00 00 00 00       	call   135f <__stubSTOP+0xac>
    135f:	4d 8b 75 08          	mov    0x8(%r13),%r14
    1363:	45 31 ed             	xor    %r13d,%r13d
    1366:	66 2e 0f 1f 84 00 00 	cs nopw 0x0(%rax,%rax,1)
    136d:	00 00 00 
    1370:	4b 8b 0c ee          	mov    (%r14,%r13,8),%rcx
    1374:	44 89 ea             	mov    %r13d,%edx
    1377:	49 89 d8             	mov    %rbx,%r8
    137a:	48 89 ee             	mov    %rbp,%rsi
    137d:	bf 01 00 00 00       	mov    $0x1,%edi
    1382:	31 c0                	xor    %eax,%eax
    1384:	49 83 c5 01          	add    $0x1,%r13
    1388:	e8 00 00 00 00       	call   138d <__stubSTOP+0xda>
    138d:	49 81 fd 99 00 00 00 	cmp    $0x99,%r13
    1394:	75 da                	jne    1370 <__stubSTOP+0xbd>
    1396:	eb 8e                	jmp    1326 <__stubSTOP+0x73>

0000000000001398 <__stubLSLINT>:
    1398:	49 8b 0f             	mov    (%r15),%rcx
    139b:	49 83 ed 01          	sub    $0x1,%r13
    139f:	49 83 c7 08          	add    $0x8,%r15
    13a3:	49 89 ee             	mov    %rbp,%r14
    13a6:	48 d1 f9             	sar    %rcx
    13a9:	49 d3 e5             	shl    %cl,%r13
    13ac:	49 83 c5 01          	add    $0x1,%r13
    13b0:	e9 13 ef ff ff       	jmp    2c8 <__stubCHECK_SIGNALS+0x12f>

00000000000013b5 <__stubLSRINT>:
    13b5:	49 8b 0f             	mov    (%r15),%rcx
    13b8:	49 89 ee             	mov    %rbp,%r14
    13bb:	49 83 c7 08          	add    $0x8,%r15
    13bf:	48 d1 f9             	sar    %rcx
    13c2:	49 d3 ed             	shr    %cl,%r13
    13c5:	49 83 cd 01          	or     $0x1,%r13
    13c9:	e9 fa ee ff ff       	jmp    2c8 <__stubCHECK_SIGNALS+0x12f>

00000000000013ce <__stubBOOLNOT>:
    13ce:	b8 04 00 00 00       	mov    $0x4,%eax
    13d3:	49 89 ee             	mov    %rbp,%r14
    13d6:	4c 29 e8             	sub    %r13,%rax
    13d9:	49 89 c5             	mov    %rax,%r13
    13dc:	e9 e7 ee ff ff       	jmp    2c8 <__stubCHECK_SIGNALS+0x12f>

00000000000013e1 <__stubPUSHTRAP>:
    13e1:	49 63 46 04          	movslq 0x4(%r14),%rax
    13e5:	48 8b 7c 24 08       	mov    0x8(%rsp),%rdi
    13ea:	49 8d 57 e0          	lea    -0x20(%r15),%rdx
    13ee:	49 83 c6 08          	add    $0x8,%r14
    13f2:	48 89 d3             	mov    %rdx,%rbx
    13f5:	48 8d 44 85 00       	lea    0x0(%rbp,%rax,4),%rax
    13fa:	49 89 47 e0          	mov    %rax,-0x20(%r15)
    13fe:	48 8b 87 d8 01 00 00 	mov    0x1d8(%rdi),%rax
    1405:	4d 89 67 f8          	mov    %r12,-0x8(%r15)
    1409:	48 8d 44 00 01       	lea    0x1(%rax,%rax,1),%rax
    140e:	49 89 47 e8          	mov    %rax,-0x18(%r15)
    1412:	48 8b 44 24 18       	mov    0x18(%rsp),%rax
    1417:	49 89 47 f0          	mov    %rax,-0x10(%r15)
    141b:	48 8b 47 20          	mov    0x20(%rdi),%rax
    141f:	49 89 d7             	mov    %rdx,%r15
    1422:	48 2b 58 10          	sub    0x10(%rax),%rbx
    1426:	48 89 d8             	mov    %rbx,%rax
    1429:	48 c1 f8 03          	sar    $0x3,%rax
    142d:	48 89 87 d8 01 00 00 	mov    %rax,0x1d8(%rdi)
    1434:	e9 8f ee ff ff       	jmp    2c8 <__stubCHECK_SIGNALS+0x12f>

0000000000001439 <__stubPOPTRAP>:
    1439:	e8 00 00 00 00       	call   143e <__stubPOPTRAP+0x5>
    143e:	48 8b 5c 24 08       	mov    0x8(%rsp),%rbx
    1443:	48 8b 03             	mov    (%rbx),%rax
    1446:	48 39 43 08          	cmp    %rax,0x8(%rbx)
    144a:	0f 82 59 16 00 00    	jb     2aa9 <__stubAPPTERM3+0x6d3>
    1450:	e8 00 00 00 00       	call   1455 <__stubPOPTRAP+0x1c>
    1455:	85 c0                	test   %eax,%eax
    1457:	0f 85 4c 16 00 00    	jne    2aa9 <__stubAPPTERM3+0x6d3>
    145d:	49 8b 47 08          	mov    0x8(%r15),%rax
    1461:	49 89 ee             	mov    %rbp,%r14
    1464:	49 83 c7 20          	add    $0x20,%r15
    1468:	48 d1 f8             	sar    %rax
    146b:	48 89 83 d8 01 00 00 	mov    %rax,0x1d8(%rbx)
    1472:	e9 51 ee ff ff       	jmp    2c8 <__stubCHECK_SIGNALS+0x12f>
    1477:	4c 89 f8             	mov    %r15,%rax
    147a:	4d 89 f7             	mov    %r14,%r15
    147d:	49 89 c6             	mov    %rax,%r14

0000000000001480 <__stubRAISE>:
    1480:	48 8b 44 24 08       	mov    0x8(%rsp),%rax
    1485:	48 8b b8 e0 01 00 00 	mov    0x1e0(%rax),%rdi
    148c:	48 39 b8 d8 01 00 00 	cmp    %rdi,0x1d8(%rax)
    1493:	0f 8d de 10 00 00    	jge    2577 <__stubAPPTERM3+0x1a1>
    1499:	48 8b 44 24 08       	mov    0x8(%rsp),%rax
    149e:	48 83 b8 c0 00 00 00 	cmpq   $0x0,0xc0(%rax)
    14a5:	00 
    14a6:	0f 84 60 ec ff ff    	je     10c <caml_interprete+0x10c>
    14ac:	4d 89 7e f8          	mov    %r15,-0x8(%r14)
    14b0:	49 8d 5e f8          	lea    -0x8(%r14),%rbx
    14b4:	31 d2                	xor    %edx,%edx
    14b6:	e9 6b fb ff ff       	jmp    1026 <__stubRERAISE+0x39>

00000000000014bb <__stubORINT>:
    14bb:	4d 0b 2f             	or     (%r15),%r13
    14be:	49 89 ee             	mov    %rbp,%r14
    14c1:	49 83 c7 08          	add    $0x8,%r15
    14c5:	e9 fe ed ff ff       	jmp    2c8 <__stubCHECK_SIGNALS+0x12f>
    14ca:	4d 89 fe             	mov    %r15,%r14
    14cd:	49 89 ef             	mov    %rbp,%r15
    14d0:	e9 c4 ec ff ff       	jmp    199 <__stubCHECK_SIGNALS>

00000000000014d5 <__stubC_CALL1>:
    14d5:	48 8b 44 24 18       	mov    0x18(%rsp),%rax
    14da:	49 8d 5e 08          	lea    0x8(%r14),%rbx
    14de:	4d 8d 4f f0          	lea    -0x10(%r15),%r9
    14e2:	4c 89 ef             	mov    %r13,%rdi
    14e5:	48 8b 6c 24 08       	mov    0x8(%rsp),%rbp
    14ea:	49 89 5f f8          	mov    %rbx,-0x8(%r15)
    14ee:	49 89 47 f0          	mov    %rax,-0x10(%r15)
    14f2:	48 8b 45 20          	mov    0x20(%rbp),%rax
    14f6:	4c 89 08             	mov    %r9,(%rax)
    14f9:	49 63 4e 04          	movslq 0x4(%r14),%rcx
    14fd:	31 c0                	xor    %eax,%eax
    14ff:	49 89 de             	mov    %rbx,%r14
    1502:	48 8b 15 00 00 00 00 	mov    0x0(%rip),%rdx        # 1509 <__stubC_CALL1+0x34>
    1509:	ff 14 ca             	call   *(%rdx,%rcx,8)
    150c:	49 89 c5             	mov    %rax,%r13
    150f:	48 8b 45 20          	mov    0x20(%rbp),%rax
    1513:	4c 8b 08             	mov    (%rax),%r9
    1516:	49 8b 01             	mov    (%r9),%rax
    1519:	4d 8d 79 10          	lea    0x10(%r9),%r15
    151d:	48 89 44 24 18       	mov    %rax,0x18(%rsp)
    1522:	e9 a1 ed ff ff       	jmp    2c8 <__stubCHECK_SIGNALS+0x12f>

0000000000001527 <__stubANDINT>:
    1527:	4d 23 2f             	and    (%r15),%r13
    152a:	49 89 ee             	mov    %rbp,%r14
    152d:	49 83 c7 08          	add    $0x8,%r15
    1531:	e9 92 ed ff ff       	jmp    2c8 <__stubCHECK_SIGNALS+0x12f>

0000000000001536 <__stubXORINT>:
    1536:	4d 33 2f             	xor    (%r15),%r13
    1539:	49 89 ee             	mov    %rbp,%r14
    153c:	49 83 c7 08          	add    $0x8,%r15
    1540:	49 83 cd 01          	or     $0x1,%r13
    1544:	e9 7f ed ff ff       	jmp    2c8 <__stubCHECK_SIGNALS+0x12f>

0000000000001549 <__stubC_CALL2>:
    1549:	48 8b 44 24 18       	mov    0x18(%rsp),%rax
    154e:	49 8d 5e 08          	lea    0x8(%r14),%rbx
    1552:	49 8d 57 f0          	lea    -0x10(%r15),%rdx
    1556:	4c 89 ef             	mov    %r13,%rdi
    1559:	48 8b 6c 24 08       	mov    0x8(%rsp),%rbp
    155e:	49 89 5f f8          	mov    %rbx,-0x8(%r15)
    1562:	49 89 47 f0          	mov    %rax,-0x10(%r15)
    1566:	48 8b 45 20          	mov    0x20(%rbp),%rax
    156a:	48 89 10             	mov    %rdx,(%rax)
    156d:	49 63 4e 04          	movslq 0x4(%r14),%rcx
    1571:	31 c0                	xor    %eax,%eax
    1573:	49 89 de             	mov    %rbx,%r14
    1576:	48 8b 15 00 00 00 00 	mov    0x0(%rip),%rdx        # 157d <__stubC_CALL2+0x34>
    157d:	49 8b 37             	mov    (%r15),%rsi
    1580:	ff 14 ca             	call   *(%rdx,%rcx,8)
    1583:	49 89 c5             	mov    %rax,%r13
    1586:	48 8b 45 20          	mov    0x20(%rbp),%rax
    158a:	4c 8b 08             	mov    (%rax),%r9
    158d:	49 8b 01             	mov    (%r9),%rax
    1590:	4d 8d 79 18          	lea    0x18(%r9),%r15
    1594:	48 89 44 24 18       	mov    %rax,0x18(%rsp)
    1599:	e9 2a ed ff ff       	jmp    2c8 <__stubCHECK_SIGNALS+0x12f>

000000000000159e <__stubC_CALL3>:
    159e:	48 8b 44 24 18       	mov    0x18(%rsp),%rax
    15a3:	49 8d 5e 08          	lea    0x8(%r14),%rbx
    15a7:	49 8d 57 f0          	lea    -0x10(%r15),%rdx
    15ab:	4c 89 ef             	mov    %r13,%rdi
    15ae:	48 8b 6c 24 08       	mov    0x8(%rsp),%rbp
    15b3:	49 89 5f f8          	mov    %rbx,-0x8(%r15)
    15b7:	49 89 47 f0          	mov    %rax,-0x10(%r15)
    15bb:	48 8b 45 20          	mov    0x20(%rbp),%rax
    15bf:	48 89 10             	mov    %rdx,(%rax)
    15c2:	4d 63 46 04          	movslq 0x4(%r14),%r8
    15c6:	31 c0                	xor    %eax,%eax
    15c8:	49 89 de             	mov    %rbx,%r14
    15cb:	48 8b 0d 00 00 00 00 	mov    0x0(%rip),%rcx        # 15d2 <__stubC_CALL3+0x34>
    15d2:	49 8b 57 08          	mov    0x8(%r15),%rdx
    15d6:	49 8b 37             	mov    (%r15),%rsi
    15d9:	42 ff 14 c1          	call   *(%rcx,%r8,8)
    15dd:	49 89 c5             	mov    %rax,%r13
    15e0:	48 8b 45 20          	mov    0x20(%rbp),%rax
    15e4:	4c 8b 08             	mov    (%rax),%r9
    15e7:	49 8b 01             	mov    (%r9),%rax
    15ea:	4d 8d 79 20          	lea    0x20(%r9),%r15
    15ee:	48 89 44 24 18       	mov    %rax,0x18(%rsp)
    15f3:	e9 d0 ec ff ff       	jmp    2c8 <__stubCHECK_SIGNALS+0x12f>

00000000000015f8 <__stubC_CALL4>:
    15f8:	48 8b 44 24 18       	mov    0x18(%rsp),%rax
    15fd:	49 8d 5e 08          	lea    0x8(%r14),%rbx
    1601:	49 8d 57 f0          	lea    -0x10(%r15),%rdx
    1605:	4c 89 ef             	mov    %r13,%rdi
    1608:	48 8b 6c 24 08       	mov    0x8(%rsp),%rbp
    160d:	49 89 5f f8          	mov    %rbx,-0x8(%r15)
    1611:	49 89 47 f0          	mov    %rax,-0x10(%r15)
    1615:	48 8b 45 20          	mov    0x20(%rbp),%rax
    1619:	48 89 10             	mov    %rdx,(%rax)
    161c:	4d 63 56 04          	movslq 0x4(%r14),%r10
    1620:	31 c0                	xor    %eax,%eax
    1622:	49 89 de             	mov    %rbx,%r14
    1625:	4c 8b 05 00 00 00 00 	mov    0x0(%rip),%r8        # 162c <__stubC_CALL4+0x34>
    162c:	49 8b 4f 10          	mov    0x10(%r15),%rcx
    1630:	49 8b 57 08          	mov    0x8(%r15),%rdx
    1634:	49 8b 37             	mov    (%r15),%rsi
    1637:	43 ff 14 d0          	call   *(%r8,%r10,8)
    163b:	49 89 c5             	mov    %rax,%r13
    163e:	48 8b 45 20          	mov    0x20(%rbp),%rax
    1642:	4c 8b 08             	mov    (%rax),%r9
    1645:	49 8b 01             	mov    (%r9),%rax
    1648:	4d 8d 79 28          	lea    0x28(%r9),%r15
    164c:	48 89 44 24 18       	mov    %rax,0x18(%rsp)
    1651:	e9 72 ec ff ff       	jmp    2c8 <__stubCHECK_SIGNALS+0x12f>

0000000000001656 <__stubC_CALL5>:
    1656:	48 8b 44 24 18       	mov    0x18(%rsp),%rax
    165b:	49 8d 5e 08          	lea    0x8(%r14),%rbx
    165f:	49 8d 57 f0          	lea    -0x10(%r15),%rdx
    1663:	4c 89 ef             	mov    %r13,%rdi
    1666:	48 8b 6c 24 08       	mov    0x8(%rsp),%rbp
    166b:	49 89 5f f8          	mov    %rbx,-0x8(%r15)
    166f:	49 89 47 f0          	mov    %rax,-0x10(%r15)
    1673:	48 8b 45 20          	mov    0x20(%rbp),%rax
    1677:	48 89 10             	mov    %rdx,(%rax)
    167a:	4d 63 56 04          	movslq 0x4(%r14),%r10
    167e:	31 c0                	xor    %eax,%eax
    1680:	49 89 de             	mov    %rbx,%r14
    1683:	4c 8b 0d 00 00 00 00 	mov    0x0(%rip),%r9        # 168a <__stubC_CALL5+0x34>
    168a:	49 8b 4f 10          	mov    0x10(%r15),%rcx
    168e:	49 8b 57 08          	mov    0x8(%r15),%rdx
    1692:	4d 8b 47 18          	mov    0x18(%r15),%r8
    1696:	49 8b 37             	mov    (%r15),%rsi
    1699:	43 ff 14 d1          	call   *(%r9,%r10,8)
    169d:	49 89 c5             	mov    %rax,%r13
    16a0:	48 8b 45 20          	mov    0x20(%rbp),%rax
    16a4:	4c 8b 08             	mov    (%rax),%r9
    16a7:	49 8b 01             	mov    (%r9),%rax
    16aa:	4d 8d 79 30          	lea    0x30(%r9),%r15
    16ae:	48 89 44 24 18       	mov    %rax,0x18(%rsp)
    16b3:	e9 10 ec ff ff       	jmp    2c8 <__stubCHECK_SIGNALS+0x12f>

00000000000016b8 <__stubC_CALLN>:
    16b8:	48 8b 44 24 18       	mov    0x18(%rsp),%rax
    16bd:	49 8d 6e 0c          	lea    0xc(%r14),%rbp
    16c1:	41 8b 5e 04          	mov    0x4(%r14),%ebx
    16c5:	4d 89 6f f8          	mov    %r13,-0x8(%r15)
    16c9:	4c 8b 64 24 08       	mov    0x8(%rsp),%r12
    16ce:	49 89 6f f0          	mov    %rbp,-0x10(%r15)
    16d2:	49 8d 57 e8          	lea    -0x18(%r15),%rdx
    16d6:	49 8d 7f f8          	lea    -0x8(%r15),%rdi
    16da:	49 89 47 e8          	mov    %rax,-0x18(%r15)
    16de:	89 de                	mov    %ebx,%esi
    16e0:	49 8b 44 24 20       	mov    0x20(%r12),%rax
    16e5:	48 89 10             	mov    %rdx,(%rax)
    16e8:	49 63 4e 08          	movslq 0x8(%r14),%rcx
    16ec:	31 c0                	xor    %eax,%eax
    16ee:	49 89 ee             	mov    %rbp,%r14
    16f1:	48 8b 15 00 00 00 00 	mov    0x0(%rip),%rdx        # 16f8 <__stubC_CALLN+0x40>
    16f8:	ff 14 ca             	call   *(%rdx,%rcx,8)
    16fb:	49 89 c5             	mov    %rax,%r13
    16fe:	49 8b 44 24 20       	mov    0x20(%r12),%rax
    1703:	48 8b 10             	mov    (%rax),%rdx
    1706:	48 8b 02             	mov    (%rdx),%rax
    1709:	48 89 44 24 18       	mov    %rax,0x18(%rsp)
    170e:	48 63 c3             	movslq %ebx,%rax
    1711:	4c 8d 7c c2 10       	lea    0x10(%rdx,%rax,8),%r15
    1716:	e9 ad eb ff ff       	jmp    2c8 <__stubCHECK_SIGNALS+0x12f>

000000000000171b <__stubCONST0>:
    171b:	41 bd 01 00 00 00    	mov    $0x1,%r13d
    1721:	49 89 ee             	mov    %rbp,%r14
    1724:	e9 9f eb ff ff       	jmp    2c8 <__stubCHECK_SIGNALS+0x12f>

0000000000001729 <__stubCONST1>:
    1729:	41 bd 03 00 00 00    	mov    $0x3,%r13d
    172f:	49 89 ee             	mov    %rbp,%r14
    1732:	e9 91 eb ff ff       	jmp    2c8 <__stubCHECK_SIGNALS+0x12f>

0000000000001737 <__stubCONST2>:
    1737:	41 bd 05 00 00 00    	mov    $0x5,%r13d
    173d:	49 89 ee             	mov    %rbp,%r14
    1740:	e9 83 eb ff ff       	jmp    2c8 <__stubCHECK_SIGNALS+0x12f>

0000000000001745 <__stubCONST3>:
    1745:	41 bd 07 00 00 00    	mov    $0x7,%r13d
    174b:	49 89 ee             	mov    %rbp,%r14
    174e:	e9 75 eb ff ff       	jmp    2c8 <__stubCHECK_SIGNALS+0x12f>

0000000000001753 <__stubENVACC4>:
    1753:	48 8b 44 24 18       	mov    0x18(%rsp),%rax
    1758:	49 89 ee             	mov    %rbp,%r14
    175b:	4c 8b 68 20          	mov    0x20(%rax),%r13
    175f:	e9 64 eb ff ff       	jmp    2c8 <__stubCHECK_SIGNALS+0x12f>

0000000000001764 <__stubGETFLOATFIELD>:
    1764:	49 63 46 04          	movslq 0x4(%r14),%rax
    1768:	49 8d 5e 08          	lea    0x8(%r14),%rbx
    176c:	4c 8b 74 24 08       	mov    0x8(%rsp),%r14
    1771:	49 8b 6c c5 00       	mov    0x0(%r13,%rax,8),%rbp
    1776:	48 8b 05 00 00 00 00 	mov    0x0(%rip),%rax        # 177d <__stubGETFLOATFIELD+0x19>
    177d:	64 4c 8b 20          	mov    %fs:(%rax),%r12
    1781:	49 8b 44 24 08       	mov    0x8(%r12),%rax
    1786:	48 83 e8 10          	sub    $0x10,%rax
    178a:	49 89 44 24 08       	mov    %rax,0x8(%r12)
    178f:	e8 00 00 00 00       	call   1794 <__stubGETFLOATFIELD+0x30>
    1794:	49 8b 44 24 08       	mov    0x8(%r12),%rax
    1799:	49 8b 14 24          	mov    (%r12),%rdx
    179d:	48 39 d0             	cmp    %rdx,%rax
    17a0:	0f 82 11 13 00 00    	jb     2ab7 <__stubAPPTERM3+0x6e1>
    17a6:	48 c7 00 fd 04 00 00 	movq   $0x4fd,(%rax)
    17ad:	49 8b 44 24 08       	mov    0x8(%r12),%rax
    17b2:	49 89 de             	mov    %rbx,%r14
    17b5:	48 89 68 08          	mov    %rbp,0x8(%rax)
    17b9:	4c 8d 68 08          	lea    0x8(%rax),%r13
    17bd:	e9 06 eb ff ff       	jmp    2c8 <__stubCHECK_SIGNALS+0x12f>

00000000000017c2 <__stubSETFIELD0>:
    17c2:	49 8b 37             	mov    (%r15),%rsi
    17c5:	4c 89 ef             	mov    %r13,%rdi
    17c8:	49 8d 5f 08          	lea    0x8(%r15),%rbx
    17cc:	49 89 ee             	mov    %rbp,%r14
    17cf:	49 89 df             	mov    %rbx,%r15
    17d2:	41 bd 01 00 00 00    	mov    $0x1,%r13d
    17d8:	e8 00 00 00 00       	call   17dd <__stubSETFIELD0+0x1b>
    17dd:	e9 e6 ea ff ff       	jmp    2c8 <__stubCHECK_SIGNALS+0x12f>

00000000000017e2 <__stubSETFIELD1>:
    17e2:	49 8b 37             	mov    (%r15),%rsi
    17e5:	49 8d 7d 08          	lea    0x8(%r13),%rdi
    17e9:	49 8d 5f 08          	lea    0x8(%r15),%rbx
    17ed:	49 89 ee             	mov    %rbp,%r14
    17f0:	49 89 df             	mov    %rbx,%r15
    17f3:	41 bd 01 00 00 00    	mov    $0x1,%r13d
    17f9:	e8 00 00 00 00       	call   17fe <__stubSETFIELD1+0x1c>
    17fe:	e9 c5 ea ff ff       	jmp    2c8 <__stubCHECK_SIGNALS+0x12f>

0000000000001803 <__stubSETFIELD2>:
    1803:	49 8b 37             	mov    (%r15),%rsi
    1806:	49 8d 7d 10          	lea    0x10(%r13),%rdi
    180a:	49 8d 5f 08          	lea    0x8(%r15),%rbx
    180e:	49 89 ee             	mov    %rbp,%r14
    1811:	49 89 df             	mov    %rbx,%r15
    1814:	41 bd 01 00 00 00    	mov    $0x1,%r13d
    181a:	e8 00 00 00 00       	call   181f <__stubSETFIELD2+0x1c>
    181f:	e9 a4 ea ff ff       	jmp    2c8 <__stubCHECK_SIGNALS+0x12f>

0000000000001824 <__stubSETFIELD3>:
    1824:	49 8b 37             	mov    (%r15),%rsi
    1827:	49 8d 7d 18          	lea    0x18(%r13),%rdi
    182b:	49 8d 5f 08          	lea    0x8(%r15),%rbx
    182f:	49 89 ee             	mov    %rbp,%r14
    1832:	49 89 df             	mov    %rbx,%r15
    1835:	41 bd 01 00 00 00    	mov    $0x1,%r13d
    183b:	e8 00 00 00 00       	call   1840 <__stubSETFIELD3+0x1c>
    1840:	e9 83 ea ff ff       	jmp    2c8 <__stubCHECK_SIGNALS+0x12f>

0000000000001845 <__stubSETFIELD>:
    1845:	49 63 46 04          	movslq 0x4(%r14),%rax
    1849:	49 8b 37             	mov    (%r15),%rsi
    184c:	49 8d 5f 08          	lea    0x8(%r15),%rbx
    1850:	49 83 c6 08          	add    $0x8,%r14
    1854:	49 89 df             	mov    %rbx,%r15
    1857:	49 8d 7c c5 00       	lea    0x0(%r13,%rax,8),%rdi
    185c:	41 bd 01 00 00 00    	mov    $0x1,%r13d
    1862:	e8 00 00 00 00       	call   1867 <__stubSETFIELD+0x22>
    1867:	e9 5c ea ff ff       	jmp    2c8 <__stubCHECK_SIGNALS+0x12f>

000000000000186c <__stubSETFLOATFIELD>:
    186c:	49 8b 07             	mov    (%r15),%rax
    186f:	49 83 c6 08          	add    $0x8,%r14
    1873:	49 83 c7 08          	add    $0x8,%r15
    1877:	f2 0f 10 00          	movsd  (%rax),%xmm0
    187b:	49 63 46 fc          	movslq -0x4(%r14),%rax
    187f:	f2 41 0f 11 44 c5 00 	movsd  %xmm0,0x0(%r13,%rax,8)
    1886:	41 bd 01 00 00 00    	mov    $0x1,%r13d
    188c:	e9 37 ea ff ff       	jmp    2c8 <__stubCHECK_SIGNALS+0x12f>

0000000000001891 <__stubVECTLENGTH>:
    1891:	49 8b 45 f8          	mov    -0x8(%r13),%rax
    1895:	49 89 ee             	mov    %rbp,%r14
    1898:	48 c1 e8 0a          	shr    $0xa,%rax
    189c:	4c 8d 6c 00 01       	lea    0x1(%rax,%rax,1),%r13
    18a1:	e9 22 ea ff ff       	jmp    2c8 <__stubCHECK_SIGNALS+0x12f>

00000000000018a6 <__stubBRANCH>:
    18a6:	49 63 46 04          	movslq 0x4(%r14),%rax
    18aa:	4c 8d 74 85 00       	lea    0x0(%rbp,%rax,4),%r14
    18af:	e9 14 ea ff ff       	jmp    2c8 <__stubCHECK_SIGNALS+0x12f>

00000000000018b4 <__stubBRANCHIF>:
    18b4:	49 83 fd 01          	cmp    $0x1,%r13
    18b8:	0f 84 9d 10 00 00    	je     295b <__stubAPPTERM3+0x585>
    18be:	49 63 46 04          	movslq 0x4(%r14),%rax
    18c2:	4c 8d 74 85 00       	lea    0x0(%rbp,%rax,4),%r14
    18c7:	e9 fc e9 ff ff       	jmp    2c8 <__stubCHECK_SIGNALS+0x12f>

00000000000018cc <__stubBRANCHIFNOT>:
    18cc:	49 83 fd 01          	cmp    $0x1,%r13
    18d0:	0f 84 aa 10 00 00    	je     2980 <__stubAPPTERM3+0x5aa>
    18d6:	49 83 c6 08          	add    $0x8,%r14
    18da:	e9 e9 e9 ff ff       	jmp    2c8 <__stubCHECK_SIGNALS+0x12f>

00000000000018df <__stubPUSHENVACC1>:
    18df:	48 8b 44 24 18       	mov    0x18(%rsp),%rax
    18e4:	4d 89 6f f8          	mov    %r13,-0x8(%r15)
    18e8:	49 89 ee             	mov    %rbp,%r14
    18eb:	49 83 ef 08          	sub    $0x8,%r15
    18ef:	4c 8b 68 08          	mov    0x8(%rax),%r13
    18f3:	e9 d0 e9 ff ff       	jmp    2c8 <__stubCHECK_SIGNALS+0x12f>

00000000000018f8 <__stubGETVECTITEM>:
    18f8:	49 8b 07             	mov    (%r15),%rax
    18fb:	49 89 ee             	mov    %rbp,%r14
    18fe:	49 83 c7 08          	add    $0x8,%r15
    1902:	48 d1 f8             	sar    %rax
    1905:	4d 8b 6c c5 00       	mov    0x0(%r13,%rax,8),%r13
    190a:	e9 b9 e9 ff ff       	jmp    2c8 <__stubCHECK_SIGNALS+0x12f>

000000000000190f <__stubSETVECTITEM>:
    190f:	49 8b 07             	mov    (%r15),%rax
    1912:	49 8b 77 08          	mov    0x8(%r15),%rsi
    1916:	49 89 ee             	mov    %rbp,%r14
    1919:	49 83 c7 10          	add    $0x10,%r15
    191d:	48 d1 f8             	sar    %rax
    1920:	49 8d 7c c5 00       	lea    0x0(%r13,%rax,8),%rdi
    1925:	41 bd 01 00 00 00    	mov    $0x1,%r13d
    192b:	e8 00 00 00 00       	call   1930 <__stubSETVECTITEM+0x21>
    1930:	e9 93 e9 ff ff       	jmp    2c8 <__stubCHECK_SIGNALS+0x12f>

0000000000001935 <__stubSWITCH>:
    1935:	41 8b 46 04          	mov    0x4(%r14),%eax
    1939:	49 8d 4e 08          	lea    0x8(%r14),%rcx
    193d:	41 f6 c5 01          	test   $0x1,%r13b
    1941:	0f 85 a9 0c 00 00    	jne    25f0 <__stubAPPTERM3+0x21a>
    1947:	89 c7                	mov    %eax,%edi
    1949:	41 0f b6 75 f8       	movzbl -0x8(%r13),%esi
    194e:	c1 ef 10             	shr    $0x10,%edi
    1951:	39 f7                	cmp    %esi,%edi
    1953:	0f 86 39 15 00 00    	jbe    2e92 <__stubAPPTERM3+0xabc>
    1959:	0f b7 c0             	movzwl %ax,%eax
    195c:	48 01 f0             	add    %rsi,%rax
    195f:	48 63 04 81          	movslq (%rcx,%rax,4),%rax
    1963:	4c 8d 34 81          	lea    (%rcx,%rax,4),%r14
    1967:	e9 5c e9 ff ff       	jmp    2c8 <__stubCHECK_SIGNALS+0x12f>

000000000000196c <__stubMAKEFLOATBLOCK>:
    196c:	49 8d 46 08          	lea    0x8(%r14),%rax
    1970:	4d 63 76 04          	movslq 0x4(%r14),%r14
    1974:	48 89 84 24 98 00 00 	mov    %rax,0x98(%rsp)
    197b:	00 
    197c:	49 81 fe 00 01 00 00 	cmp    $0x100,%r14
    1983:	0f 87 3d 0d 00 00    	ja     26c6 <__stubAPPTERM3+0x2f0>
    1989:	4d 85 f6             	test   %r14,%r14
    198c:	0f 84 32 16 00 00    	je     2fc4 <__stubAPPTERM3+0xbee>
    1992:	48 8b 05 00 00 00 00 	mov    0x0(%rip),%rax        # 1999 <__stubMAKEFLOATBLOCK+0x2d>
    1999:	4a 8d 1c f5 00 00 00 	lea    0x0(,%r14,8),%rbx
    19a0:	00 
    19a1:	48 c7 c5 f8 ff ff ff 	mov    $0xfffffffffffffff8,%rbp
    19a8:	48 8d 7b 08          	lea    0x8(%rbx),%rdi
    19ac:	48 29 dd             	sub    %rbx,%rbp
    19af:	64 4c 8b 20          	mov    %fs:(%rax),%r12
    19b3:	48 89 bc 24 e0 00 00 	mov    %rdi,0xe0(%rsp)
    19ba:	00 
    19bb:	49 8b 44 24 08       	mov    0x8(%r12),%rax
    19c0:	4c 89 e7             	mov    %r12,%rdi
    19c3:	49 89 dc             	mov    %rbx,%r12
    19c6:	48 89 fb             	mov    %rdi,%rbx
    19c9:	48 01 e8             	add    %rbp,%rax
    19cc:	48 89 43 08          	mov    %rax,0x8(%rbx)
    19d0:	e8 00 00 00 00       	call   19d5 <__stubMAKEFLOATBLOCK+0x69>
    19d5:	48 8b 73 08          	mov    0x8(%rbx),%rsi
    19d9:	48 8b 03             	mov    (%rbx),%rax
    19dc:	48 39 c6             	cmp    %rax,%rsi
    19df:	0f 82 6b 15 00 00    	jb     2f50 <__stubAPPTERM3+0xb7a>
    19e5:	49 b8 d7 d6 10 d7 d7 	movabs $0xd710d7d7d710d6d7,%r8
    19ec:	d7 10 d7 
    19ef:	48 89 d8             	mov    %rbx,%rax
    19f2:	4c 89 e3             	mov    %r12,%rbx
    19f5:	4c 89 ef             	mov    %r13,%rdi
    19f8:	49 89 c4             	mov    %rax,%r12
    19fb:	4c 89 f0             	mov    %r14,%rax
    19fe:	48 c1 e0 0a          	shl    $0xa,%rax
    1a02:	48 05 fe 00 00 00    	add    $0xfe,%rax
    1a08:	48 89 06             	mov    %rax,(%rsi)
    1a0b:	49 8b 74 24 08       	mov    0x8(%r12),%rsi
    1a10:	4c 8d 6e 08          	lea    0x8(%rsi),%r13
    1a14:	48 89 f0             	mov    %rsi,%rax
    1a17:	48 01 f3             	add    %rsi,%rbx
    1a1a:	4c 89 ea             	mov    %r13,%rdx
    1a1d:	4c 89 40 08          	mov    %r8,0x8(%rax)
    1a21:	48 83 c0 08          	add    $0x8,%rax
    1a25:	48 39 d8             	cmp    %rbx,%rax
    1a28:	75 f3                	jne    1a1d <__stubMAKEFLOATBLOCK+0xb1>
    1a2a:	f2 0f 10 07          	movsd  (%rdi),%xmm0
    1a2e:	f2 0f 11 46 08       	movsd  %xmm0,0x8(%rsi)
    1a33:	49 83 fe 01          	cmp    $0x1,%r14
    1a37:	0f 86 c9 0f 00 00    	jbe    2a06 <__stubAPPTERM3+0x630>
    1a3d:	48 83 c2 08          	add    $0x8,%rdx
    1a41:	b8 01 00 00 00       	mov    $0x1,%eax
    1a46:	49 8b 4c c7 f8       	mov    -0x8(%r15,%rax,8),%rcx
    1a4b:	48 89 c6             	mov    %rax,%rsi
    1a4e:	48 83 c0 01          	add    $0x1,%rax
    1a52:	48 83 c2 08          	add    $0x8,%rdx
    1a56:	f2 0f 10 01          	movsd  (%rcx),%xmm0
    1a5a:	f2 0f 11 42 f8       	movsd  %xmm0,-0x8(%rdx)
    1a5f:	49 39 c6             	cmp    %rax,%r14
    1a62:	75 e2                	jne    1a46 <__stubMAKEFLOATBLOCK+0xda>
    1a64:	4c 8b b4 24 98 00 00 	mov    0x98(%rsp),%r14
    1a6b:	00 
    1a6c:	4d 8d 3c f7          	lea    (%r15,%rsi,8),%r15
    1a70:	e9 53 e8 ff ff       	jmp    2c8 <__stubCHECK_SIGNALS+0x12f>

0000000000001a75 <__stubGETFIELD0>:
    1a75:	4d 8b 6d 00          	mov    0x0(%r13),%r13
    1a79:	49 89 ee             	mov    %rbp,%r14
    1a7c:	e9 47 e8 ff ff       	jmp    2c8 <__stubCHECK_SIGNALS+0x12f>

0000000000001a81 <__stubMAKEBLOCK2>:
    1a81:	41 8b 5e 04          	mov    0x4(%r14),%ebx
    1a85:	49 8d 6e 08          	lea    0x8(%r14),%rbp
    1a89:	81 fb ff 00 00 00    	cmp    $0xff,%ebx
    1a8f:	0f 87 cd 13 00 00    	ja     2e62 <__stubAPPTERM3+0xa8c>
    1a95:	48 8b 05 00 00 00 00 	mov    0x0(%rip),%rax        # 1a9c <__stubMAKEBLOCK2+0x1b>
    1a9c:	4d 89 ee             	mov    %r13,%r14
    1a9f:	4c 8b 6c 24 08       	mov    0x8(%rsp),%r13
    1aa4:	64 4c 8b 20          	mov    %fs:(%rax),%r12
    1aa8:	49 8b 44 24 08       	mov    0x8(%r12),%rax
    1aad:	48 83 e8 18          	sub    $0x18,%rax
    1ab1:	49 89 44 24 08       	mov    %rax,0x8(%r12)
    1ab6:	e8 00 00 00 00       	call   1abb <__stubMAKEBLOCK2+0x3a>
    1abb:	49 8b 4c 24 08       	mov    0x8(%r12),%rcx
    1ac0:	49 8b 04 24          	mov    (%r12),%rax
    1ac4:	48 39 c1             	cmp    %rax,%rcx
    1ac7:	0f 82 46 0f 00 00    	jb     2a13 <__stubAPPTERM3+0x63d>
    1acd:	48 bf d7 d6 10 d7 d7 	movabs $0xd710d7d7d710d6d7,%rdi
    1ad4:	d7 10 d7 
    1ad7:	89 d8                	mov    %ebx,%eax
    1ad9:	49 83 c7 08          	add    $0x8,%r15
    1add:	48 05 00 08 00 00    	add    $0x800,%rax
    1ae3:	48 89 01             	mov    %rax,(%rcx)
    1ae6:	49 8b 44 24 08       	mov    0x8(%r12),%rax
    1aeb:	48 89 78 10          	mov    %rdi,0x10(%rax)
    1aef:	4c 8d 68 08          	lea    0x8(%rax),%r13
    1af3:	4c 89 70 08          	mov    %r14,0x8(%rax)
    1af7:	49 8b 57 f8          	mov    -0x8(%r15),%rdx
    1afb:	49 89 ee             	mov    %rbp,%r14
    1afe:	48 89 50 10          	mov    %rdx,0x10(%rax)
    1b02:	e9 c1 e7 ff ff       	jmp    2c8 <__stubCHECK_SIGNALS+0x12f>

0000000000001b07 <__stubMAKEBLOCK3>:
    1b07:	41 8b 5e 04          	mov    0x4(%r14),%ebx
    1b0b:	49 8d 6e 08          	lea    0x8(%r14),%rbp
    1b0f:	81 fb ff 00 00 00    	cmp    $0xff,%ebx
    1b15:	0f 87 5f 13 00 00    	ja     2e7a <__stubAPPTERM3+0xaa4>
    1b1b:	48 8b 05 00 00 00 00 	mov    0x0(%rip),%rax        # 1b22 <__stubMAKEBLOCK3+0x1b>
    1b22:	4d 89 ee             	mov    %r13,%r14
    1b25:	4c 8b 6c 24 08       	mov    0x8(%rsp),%r13
    1b2a:	64 4c 8b 20          	mov    %fs:(%rax),%r12
    1b2e:	49 8b 44 24 08       	mov    0x8(%r12),%rax
    1b33:	48 83 e8 20          	sub    $0x20,%rax
    1b37:	49 89 44 24 08       	mov    %rax,0x8(%r12)
    1b3c:	e8 00 00 00 00       	call   1b41 <__stubMAKEBLOCK3+0x3a>
    1b41:	49 8b 4c 24 08       	mov    0x8(%r12),%rcx
    1b46:	49 8b 04 24          	mov    (%r12),%rax
    1b4a:	48 39 c1             	cmp    %rax,%rcx
    1b4d:	0f 82 0b 0f 00 00    	jb     2a5e <__stubAPPTERM3+0x688>
    1b53:	89 d8                	mov    %ebx,%eax
    1b55:	49 83 c7 10          	add    $0x10,%r15
    1b59:	48 05 00 0c 00 00    	add    $0xc00,%rax
    1b5f:	48 89 01             	mov    %rax,(%rcx)
    1b62:	49 8b 44 24 08       	mov    0x8(%r12),%rax
    1b67:	48 b9 d7 d6 10 d7 d7 	movabs $0xd710d7d7d710d6d7,%rcx
    1b6e:	d7 10 d7 
    1b71:	48 89 48 10          	mov    %rcx,0x10(%rax)
    1b75:	4c 8d 68 08          	lea    0x8(%rax),%r13
    1b79:	48 89 48 18          	mov    %rcx,0x18(%rax)
    1b7d:	4c 89 70 08          	mov    %r14,0x8(%rax)
    1b81:	49 8b 57 f0          	mov    -0x10(%r15),%rdx
    1b85:	49 89 ee             	mov    %rbp,%r14
    1b88:	48 89 50 10          	mov    %rdx,0x10(%rax)
    1b8c:	49 8b 57 f8          	mov    -0x8(%r15),%rdx
    1b90:	48 89 50 18          	mov    %rdx,0x18(%rax)
    1b94:	e9 2f e7 ff ff       	jmp    2c8 <__stubCHECK_SIGNALS+0x12f>

0000000000001b99 <__stubPUSHENVACC2>:
    1b99:	48 8b 44 24 18       	mov    0x18(%rsp),%rax
    1b9e:	4d 89 6f f8          	mov    %r13,-0x8(%r15)
    1ba2:	49 89 ee             	mov    %rbp,%r14
    1ba5:	49 83 ef 08          	sub    $0x8,%r15
    1ba9:	4c 8b 68 10          	mov    0x10(%rax),%r13
    1bad:	e9 16 e7 ff ff       	jmp    2c8 <__stubCHECK_SIGNALS+0x12f>

0000000000001bb2 <__stubGETFIELD1>:
    1bb2:	4d 8b 6d 08          	mov    0x8(%r13),%r13
    1bb6:	49 89 ee             	mov    %rbp,%r14
    1bb9:	e9 0a e7 ff ff       	jmp    2c8 <__stubCHECK_SIGNALS+0x12f>

0000000000001bbe <__stubGETFIELD2>:
    1bbe:	4d 8b 6d 10          	mov    0x10(%r13),%r13
    1bc2:	49 89 ee             	mov    %rbp,%r14
    1bc5:	e9 fe e6 ff ff       	jmp    2c8 <__stubCHECK_SIGNALS+0x12f>

0000000000001bca <__stubGETFIELD3>:
    1bca:	4d 8b 6d 18          	mov    0x18(%r13),%r13
    1bce:	49 89 ee             	mov    %rbp,%r14
    1bd1:	e9 f2 e6 ff ff       	jmp    2c8 <__stubCHECK_SIGNALS+0x12f>

0000000000001bd6 <__stubGETFIELD>:
    1bd6:	49 63 46 04          	movslq 0x4(%r14),%rax
    1bda:	49 83 c6 08          	add    $0x8,%r14
    1bde:	4d 8b 6c c5 00       	mov    0x0(%r13,%rax,8),%r13
    1be3:	e9 e0 e6 ff ff       	jmp    2c8 <__stubCHECK_SIGNALS+0x12f>

0000000000001be8 <__stubRETURN>:
    1be8:	49 63 46 04          	movslq 0x4(%r14),%rax
    1bec:	4d 8d 3c c7          	lea    (%r15,%rax,8),%r15
    1bf0:	48 8b 44 24 10       	mov    0x10(%rsp),%rax
    1bf5:	48 85 c0             	test   %rax,%rax
    1bf8:	0f 8e 11 0a 00 00    	jle    260f <__stubAPPTERM3+0x239>
    1bfe:	48 8b 7c 24 48       	mov    0x48(%rsp),%rdi
    1c03:	48 83 e8 01          	sub    $0x1,%rax
    1c07:	4d 8b 75 00          	mov    0x0(%r13),%r14
    1c0b:	48 89 44 24 10       	mov    %rax,0x10(%rsp)
    1c10:	e8 00 00 00 00       	call   1c15 <__stubRETURN+0x2d>
    1c15:	4c 89 6c 24 18       	mov    %r13,0x18(%rsp)
    1c1a:	e9 a9 e6 ff ff       	jmp    2c8 <__stubCHECK_SIGNALS+0x12f>

0000000000001c1f <__stubRESTART>:
    1c1f:	48 8b 4c 24 18       	mov    0x18(%rsp),%rcx
    1c24:	48 8b 41 f8          	mov    -0x8(%rcx),%rax
    1c28:	48 c1 e8 0a          	shr    $0xa,%rax
    1c2c:	8d 70 fd             	lea    -0x3(%rax),%esi
    1c2f:	8d 78 fc             	lea    -0x4(%rax),%edi
    1c32:	31 c0                	xor    %eax,%eax
    1c34:	48 63 d6             	movslq %esi,%rdx
    1c37:	48 c1 e2 03          	shl    $0x3,%rdx
    1c3b:	49 29 d7             	sub    %rdx,%r15
    1c3e:	85 f6                	test   %esi,%esi
    1c40:	7e 1a                	jle    1c5c <__stubRESTART+0x3d>
    1c42:	8d 50 03             	lea    0x3(%rax),%edx
    1c45:	48 63 d2             	movslq %edx,%rdx
    1c48:	48 8b 14 d1          	mov    (%rcx,%rdx,8),%rdx
    1c4c:	49 89 14 c7          	mov    %rdx,(%r15,%rax,8)
    1c50:	48 89 c2             	mov    %rax,%rdx
    1c53:	48 83 c0 01          	add    $0x1,%rax
    1c57:	48 39 fa             	cmp    %rdi,%rdx
    1c5a:	75 e6                	jne    1c42 <__stubRESTART+0x23>
    1c5c:	48 8b 41 10          	mov    0x10(%rcx),%rax
    1c60:	48 63 f6             	movslq %esi,%rsi
    1c63:	49 89 ee             	mov    %rbp,%r14
    1c66:	48 01 74 24 10       	add    %rsi,0x10(%rsp)
    1c6b:	48 89 44 24 18       	mov    %rax,0x18(%rsp)
    1c70:	e9 53 e6 ff ff       	jmp    2c8 <__stubCHECK_SIGNALS+0x12f>
    1c75:	4c 89 f8             	mov    %r15,%rax
    1c78:	4d 89 f7             	mov    %r14,%r15
    1c7b:	49 89 c6             	mov    %rax,%r14

0000000000001c7e <__stubAPPTERM2>:
    1c7e:	49 63 4f 04          	movslq 0x4(%r15),%rcx
    1c82:	48 8b 10             	mov    (%rax),%rdx
    1c85:	48 8b 40 08          	mov    0x8(%rax),%rax
    1c89:	48 83 44 24 10 01    	addq   $0x1,0x10(%rsp)
    1c8f:	4d 8d 74 ce f0       	lea    -0x10(%r14,%rcx,8),%r14
    1c94:	49 89 16             	mov    %rdx,(%r14)
    1c97:	49 89 46 08          	mov    %rax,0x8(%r14)
    1c9b:	4d 8b 7d 00          	mov    0x0(%r13),%r15
    1c9f:	e9 d7 e4 ff ff       	jmp    17b <caml_interprete+0x17b>

0000000000001ca4 <__stubCLOSUREREC>:
    1ca4:	49 63 5e 04          	movslq 0x4(%r14),%rbx
    1ca8:	49 63 46 08          	movslq 0x8(%r14),%rax
    1cac:	49 8d 6e 0c          	lea    0xc(%r14),%rbp
    1cb0:	44 8d 64 5b ff       	lea    -0x1(%rbx,%rbx,2),%r12d
    1cb5:	48 89 84 24 b8 00 00 	mov    %rax,0xb8(%rsp)
    1cbc:	00 
    1cbd:	48 89 c1             	mov    %rax,%rcx
    1cc0:	4d 63 e4             	movslq %r12d,%r12
    1cc3:	4a 8d 3c 20          	lea    (%rax,%r12,1),%rdi
    1cc7:	85 c0                	test   %eax,%eax
    1cc9:	7e 08                	jle    1cd3 <__stubCLOSUREREC+0x2f>
    1ccb:	4d 89 6f f8          	mov    %r13,-0x8(%r15)
    1ccf:	49 83 ef 08          	sub    $0x8,%r15
    1cd3:	48 81 ff 00 01 00 00 	cmp    $0x100,%rdi
    1cda:	0f 87 08 0a 00 00    	ja     26e8 <__stubAPPTERM3+0x312>
    1ce0:	48 85 ff             	test   %rdi,%rdi
    1ce3:	0f 84 18 0f 00 00    	je     2c01 <__stubAPPTERM3+0x82b>
    1ce9:	48 8b 05 00 00 00 00 	mov    0x0(%rip),%rax        # 1cf0 <__stubCLOSUREREC+0x4c>
    1cf0:	48 8d 34 fd 00 00 00 	lea    0x0(,%rdi,8),%rsi
    1cf7:	00 
    1cf8:	64 48 8b 10          	mov    %fs:(%rax),%rdx
    1cfc:	48 c7 c0 f8 ff ff ff 	mov    $0xfffffffffffffff8,%rax
    1d03:	48 89 b4 24 c0 00 00 	mov    %rsi,0xc0(%rsp)
    1d0a:	00 
    1d0b:	48 29 f0             	sub    %rsi,%rax
    1d0e:	48 83 c6 08          	add    $0x8,%rsi
    1d12:	89 9c 24 14 01 00 00 	mov    %ebx,0x114(%rsp)
    1d19:	48 89 b4 24 d0 00 00 	mov    %rsi,0xd0(%rsp)
    1d20:	00 
    1d21:	4c 89 ee             	mov    %r13,%rsi
    1d24:	48 89 d3             	mov    %rdx,%rbx
    1d27:	4d 89 e5             	mov    %r12,%r13
    1d2a:	48 89 84 24 c8 00 00 	mov    %rax,0xc8(%rsp)
    1d31:	00 
    1d32:	41 89 cc             	mov    %ecx,%r12d
    1d35:	48 03 42 08          	add    0x8(%rdx),%rax
    1d39:	4c 89 f9             	mov    %r15,%rcx
    1d3c:	49 89 ff             	mov    %rdi,%r15
    1d3f:	48 89 f7             	mov    %rsi,%rdi
    1d42:	48 89 43 08          	mov    %rax,0x8(%rbx)
    1d46:	48 89 bc 24 30 01 00 	mov    %rdi,0x130(%rsp)
    1d4d:	00 
    1d4e:	48 89 8c 24 28 01 00 	mov    %rcx,0x128(%rsp)
    1d55:	00 
    1d56:	e8 00 00 00 00       	call   1d5b <__stubCLOSUREREC+0xb7>
    1d5b:	48 8b 73 08          	mov    0x8(%rbx),%rsi
    1d5f:	48 8b 03             	mov    (%rbx),%rax
    1d62:	48 8b 8c 24 28 01 00 	mov    0x128(%rsp),%rcx
    1d69:	00 
    1d6a:	48 8b bc 24 30 01 00 	mov    0x130(%rsp),%rdi
    1d71:	00 
    1d72:	48 39 c6             	cmp    %rax,%rsi
    1d75:	0f 82 03 0f 00 00    	jb     2c7e <__stubAPPTERM3+0x8a8>
    1d7b:	4c 89 ff             	mov    %r15,%rdi
    1d7e:	48 89 da             	mov    %rbx,%rdx
    1d81:	48 63 9c 24 14 01 00 	movslq 0x114(%rsp),%rbx
    1d88:	00 
    1d89:	49 89 cf             	mov    %rcx,%r15
    1d8c:	48 89 f8             	mov    %rdi,%rax
    1d8f:	44 89 e1             	mov    %r12d,%ecx
    1d92:	4d 89 ec             	mov    %r13,%r12
    1d95:	48 bf d7 d6 10 d7 d7 	movabs $0xd710d7d7d710d6d7,%rdi
    1d9c:	d7 10 d7 
    1d9f:	48 c1 e0 0a          	shl    $0xa,%rax
    1da3:	48 05 f7 00 00 00    	add    $0xf7,%rax
    1da9:	48 89 06             	mov    %rax,(%rsi)
    1dac:	48 8b 42 08          	mov    0x8(%rdx),%rax
    1db0:	48 8b b4 24 c0 00 00 	mov    0xc0(%rsp),%rsi
    1db7:	00 
    1db8:	48 83 c0 08          	add    $0x8,%rax
    1dbc:	49 89 c5             	mov    %rax,%r13
    1dbf:	49 89 c0             	mov    %rax,%r8
    1dc2:	48 01 c6             	add    %rax,%rsi
    1dc5:	48 89 c2             	mov    %rax,%rdx
    1dc8:	48 89 3a             	mov    %rdi,(%rdx)
    1dcb:	48 83 c2 08          	add    $0x8,%rdx
    1dcf:	48 39 d6             	cmp    %rdx,%rsi
    1dd2:	75 f4                	jne    1dc8 <__stubCLOSUREREC+0x124>
    1dd4:	4b 8d 14 e0          	lea    (%r8,%r12,8),%rdx
    1dd8:	85 c9                	test   %ecx,%ecx
    1dda:	7e 1b                	jle    1df7 <__stubCLOSUREREC+0x153>
    1ddc:	4c 89 fe             	mov    %r15,%rsi
    1ddf:	48 8d 3c ca          	lea    (%rdx,%rcx,8),%rdi
    1de3:	48 29 d6             	sub    %rdx,%rsi
    1de6:	48 8b 0c 32          	mov    (%rdx,%rsi,1),%rcx
    1dea:	48 83 c2 08          	add    $0x8,%rdx
    1dee:	48 89 4a f8          	mov    %rcx,-0x8(%rdx)
    1df2:	48 39 d7             	cmp    %rdx,%rdi
    1df5:	75 ef                	jne    1de6 <__stubCLOSUREREC+0x142>
    1df7:	48 8b bc 24 b8 00 00 	mov    0xb8(%rsp),%rdi
    1dfe:	00 
    1dff:	49 8d 14 ff          	lea    (%r15,%rdi,8),%rdx
    1e03:	4c 89 6a f8          	mov    %r13,-0x8(%rdx)
    1e07:	4c 8d 7a f8          	lea    -0x8(%rdx),%r15
    1e0b:	49 63 56 0c          	movslq 0xc(%r14),%rdx
    1e0f:	48 8d 54 95 00       	lea    0x0(%rbp,%rdx,4),%rdx
    1e14:	48 89 10             	mov    %rdx,(%rax)
    1e17:	4b 8d 54 24 01       	lea    0x1(%r12,%r12,1),%rdx
    1e1c:	48 89 50 08          	mov    %rdx,0x8(%rax)
    1e20:	83 fb 01             	cmp    $0x1,%ebx
    1e23:	7e 61                	jle    1e86 <__stubCLOSUREREC+0x1e2>
    1e25:	48 83 c0 18          	add    $0x18,%rax
    1e29:	4d 8d 56 10          	lea    0x10(%r14),%r10
    1e2d:	4b 8d 7c 24 fb       	lea    -0x5(%r12,%r12,1),%rdi
    1e32:	4c 89 fe             	mov    %r15,%rsi
    1e35:	44 8d 04 5b          	lea    (%rbx,%rbx,2),%r8d
    1e39:	b9 03 00 00 00       	mov    $0x3,%ecx
    1e3e:	48 63 d1             	movslq %ecx,%rdx
    1e41:	48 83 ee 08          	sub    $0x8,%rsi
    1e45:	83 c1 03             	add    $0x3,%ecx
    1e48:	49 83 c2 04          	add    $0x4,%r10
    1e4c:	48 c1 e2 0a          	shl    $0xa,%rdx
    1e50:	48 81 c2 f9 00 00 00 	add    $0xf9,%rdx
    1e57:	48 89 50 f8          	mov    %rdx,-0x8(%rax)
    1e5b:	48 89 06             	mov    %rax,(%rsi)
    1e5e:	49 63 52 fc          	movslq -0x4(%r10),%rdx
    1e62:	48 83 c0 18          	add    $0x18,%rax
    1e66:	48 89 78 f0          	mov    %rdi,-0x10(%rax)
    1e6a:	48 83 ef 06          	sub    $0x6,%rdi
    1e6e:	48 8d 54 95 00       	lea    0x0(%rbp,%rdx,4),%rdx
    1e73:	48 89 50 e8          	mov    %rdx,-0x18(%rax)
    1e77:	41 39 c8             	cmp    %ecx,%r8d
    1e7a:	75 c2                	jne    1e3e <__stubCLOSUREREC+0x19a>
    1e7c:	8d 43 ff             	lea    -0x1(%rbx),%eax
    1e7f:	48 f7 d8             	neg    %rax
    1e82:	4d 8d 3c c7          	lea    (%r15,%rax,8),%r15
    1e86:	4c 8d 74 9d 00       	lea    0x0(%rbp,%rbx,4),%r14
    1e8b:	e9 38 e4 ff ff       	jmp    2c8 <__stubCHECK_SIGNALS+0x12f>
    1e90:	4c 89 f8             	mov    %r15,%rax
    1e93:	4d 89 f7             	mov    %r14,%r15
    1e96:	49 89 c6             	mov    %rax,%r14

0000000000001e99 <__stubAPPLY>:
    1e99:	41 8b 47 04          	mov    0x4(%r15),%eax
    1e9d:	4d 8b 7d 00          	mov    0x0(%r13),%r15
    1ea1:	83 e8 01             	sub    $0x1,%eax
    1ea4:	48 98                	cltq   
    1ea6:	48 89 44 24 10       	mov    %rax,0x10(%rsp)
    1eab:	4d 85 ff             	test   %r15,%r15
    1eae:	0f 84 b3 08 00 00    	je     2767 <__stubAPPTERM3+0x391>
    1eb4:	48 8b 5c 24 48       	mov    0x48(%rsp),%rbx
    1eb9:	4c 89 fe             	mov    %r15,%rsi
    1ebc:	48 89 df             	mov    %rbx,%rdi
    1ebf:	e8 00 00 00 00       	call   1ec4 <__stubAPPLY+0x2b>
    1ec4:	48 8b 7c 24 50       	mov    0x50(%rsp),%rdi
    1ec9:	48 89 de             	mov    %rbx,%rsi
    1ecc:	e8 00 00 00 00       	call   1ed1 <__stubAPPLY+0x38>
    1ed1:	e9 a5 e2 ff ff       	jmp    17b <caml_interprete+0x17b>

0000000000001ed6 <__stubAPPLY1>:
    1ed6:	49 8b 07             	mov    (%r15),%rax
    1ed9:	49 89 6f f0          	mov    %rbp,-0x10(%r15)
    1edd:	49 8d 5f e8          	lea    -0x18(%r15),%rbx
    1ee1:	4d 89 27             	mov    %r12,(%r15)
    1ee4:	49 89 47 e8          	mov    %rax,-0x18(%r15)
    1ee8:	48 8b 44 24 18       	mov    0x18(%rsp),%rax
    1eed:	49 89 47 f8          	mov    %rax,-0x8(%r15)
    1ef1:	4d 8b 7d 00          	mov    0x0(%r13),%r15
    1ef5:	4d 85 ff             	test   %r15,%r15
    1ef8:	0f 84 8a 08 00 00    	je     2788 <__stubAPPTERM3+0x3b2>
    1efe:	4c 8b 74 24 48       	mov    0x48(%rsp),%r14
    1f03:	4c 89 fe             	mov    %r15,%rsi
    1f06:	4c 89 f7             	mov    %r14,%rdi
    1f09:	e8 00 00 00 00       	call   1f0e <__stubAPPLY1+0x38>
    1f0e:	48 8b 7c 24 50       	mov    0x50(%rsp),%rdi
    1f13:	4c 89 f6             	mov    %r14,%rsi
    1f16:	49 89 de             	mov    %rbx,%r14
    1f19:	48 c7 44 24 10 00 00 	movq   $0x0,0x10(%rsp)
    1f20:	00 00 
    1f22:	e8 00 00 00 00       	call   1f27 <__stubAPPLY1+0x51>
    1f27:	e9 4f e2 ff ff       	jmp    17b <caml_interprete+0x17b>

0000000000001f2c <__stubAPPLY2>:
    1f2c:	49 8b 47 08          	mov    0x8(%r15),%rax
    1f30:	49 8b 17             	mov    (%r15),%rdx
    1f33:	49 89 6f f8          	mov    %rbp,-0x8(%r15)
    1f37:	49 8d 5f e8          	lea    -0x18(%r15),%rbx
    1f3b:	4d 89 67 08          	mov    %r12,0x8(%r15)
    1f3f:	49 89 47 f0          	mov    %rax,-0x10(%r15)
    1f43:	48 8b 44 24 18       	mov    0x18(%rsp),%rax
    1f48:	49 89 57 e8          	mov    %rdx,-0x18(%r15)
    1f4c:	49 89 07             	mov    %rax,(%r15)
    1f4f:	4d 8b 7d 00          	mov    0x0(%r13),%r15
    1f53:	4d 85 ff             	test   %r15,%r15
    1f56:	0f 84 96 09 00 00    	je     28f2 <__stubAPPTERM3+0x51c>
    1f5c:	4c 8b 74 24 48       	mov    0x48(%rsp),%r14
    1f61:	4c 89 fe             	mov    %r15,%rsi
    1f64:	4c 89 f7             	mov    %r14,%rdi
    1f67:	e8 00 00 00 00       	call   1f6c <__stubAPPLY2+0x40>
    1f6c:	48 8b 7c 24 50       	mov    0x50(%rsp),%rdi
    1f71:	4c 89 f6             	mov    %r14,%rsi
    1f74:	49 89 de             	mov    %rbx,%r14
    1f77:	48 c7 44 24 10 01 00 	movq   $0x1,0x10(%rsp)
    1f7e:	00 00 
    1f80:	e8 00 00 00 00       	call   1f85 <__stubAPPLY2+0x59>
    1f85:	e9 f1 e1 ff ff       	jmp    17b <caml_interprete+0x17b>

0000000000001f8a <__stubGRAB>:
    1f8a:	49 63 46 04          	movslq 0x4(%r14),%rax
    1f8e:	48 8b 7c 24 10       	mov    0x10(%rsp),%rdi
    1f93:	49 8d 76 08          	lea    0x8(%r14),%rsi
    1f97:	48 89 b4 24 e8 00 00 	mov    %rsi,0xe8(%rsp)
    1f9e:	00 
    1f9f:	48 39 f8             	cmp    %rdi,%rax
    1fa2:	0f 8f 01 08 00 00    	jg     27a9 <__stubAPPTERM3+0x3d3>
    1fa8:	48 29 c7             	sub    %rax,%rdi
    1fab:	49 89 f6             	mov    %rsi,%r14
    1fae:	48 89 7c 24 10       	mov    %rdi,0x10(%rsp)
    1fb3:	e9 10 e3 ff ff       	jmp    2c8 <__stubCHECK_SIGNALS+0x12f>
    1fb8:	4c 89 f8             	mov    %r15,%rax
    1fbb:	4d 89 f7             	mov    %r14,%r15
    1fbe:	49 89 c6             	mov    %rax,%r14

0000000000001fc1 <__stubAPPTERM>:
    1fc1:	49 63 4f 04          	movslq 0x4(%r15),%rcx
    1fc5:	49 63 47 08          	movslq 0x8(%r15),%rax
    1fc9:	48 89 ca             	mov    %rcx,%rdx
    1fcc:	48 29 c8             	sub    %rcx,%rax
    1fcf:	49 8d 3c c6          	lea    (%r14,%rax,8),%rdi
    1fd3:	83 ea 01             	sub    $0x1,%edx
    1fd6:	78 28                	js     2000 <__stubAPPTERM+0x3f>
    1fd8:	48 63 ca             	movslq %edx,%rcx
    1fdb:	89 d6                	mov    %edx,%esi
    1fdd:	48 8d 04 cd 00 00 00 	lea    0x0(,%rcx,8),%rax
    1fe4:	00 
    1fe5:	48 29 f1             	sub    %rsi,%rcx
    1fe8:	48 c1 e1 03          	shl    $0x3,%rcx
    1fec:	49 8b 34 06          	mov    (%r14,%rax,1),%rsi
    1ff0:	48 89 34 07          	mov    %rsi,(%rdi,%rax,1)
    1ff4:	48 89 c6             	mov    %rax,%rsi
    1ff7:	48 83 e8 08          	sub    $0x8,%rax
    1ffb:	48 39 ce             	cmp    %rcx,%rsi
    1ffe:	75 ec                	jne    1fec <__stubAPPTERM+0x2b>
    2000:	48 63 d2             	movslq %edx,%rdx
    2003:	4d 8b 7d 00          	mov    0x0(%r13),%r15
    2007:	48 01 54 24 10       	add    %rdx,0x10(%rsp)
    200c:	49 89 fe             	mov    %rdi,%r14
    200f:	e9 67 e1 ff ff       	jmp    17b <caml_interprete+0x17b>

0000000000002014 <__stubAPPLY3>:
    2014:	49 8b 47 10          	mov    0x10(%r15),%rax
    2018:	49 8b 57 08          	mov    0x8(%r15),%rdx
    201c:	4d 89 67 10          	mov    %r12,0x10(%r15)
    2020:	49 8d 5f e8          	lea    -0x18(%r15),%rbx
    2024:	49 8b 0f             	mov    (%r15),%rcx
    2027:	49 89 2f             	mov    %rbp,(%r15)
    202a:	49 89 47 f8          	mov    %rax,-0x8(%r15)
    202e:	48 8b 44 24 18       	mov    0x18(%rsp),%rax
    2033:	49 89 4f e8          	mov    %rcx,-0x18(%r15)
    2037:	49 89 57 f0          	mov    %rdx,-0x10(%r15)
    203b:	49 89 47 08          	mov    %rax,0x8(%r15)
    203f:	4d 8b 7d 00          	mov    0x0(%r13),%r15
    2043:	4d 85 ff             	test   %r15,%r15
    2046:	0f 84 85 08 00 00    	je     28d1 <__stubAPPTERM3+0x4fb>
    204c:	4c 8b 74 24 48       	mov    0x48(%rsp),%r14
    2051:	4c 89 fe             	mov    %r15,%rsi
    2054:	4c 89 f7             	mov    %r14,%rdi
    2057:	e8 00 00 00 00       	call   205c <__stubAPPLY3+0x48>
    205c:	48 8b 7c 24 50       	mov    0x50(%rsp),%rdi
    2061:	4c 89 f6             	mov    %r14,%rsi
    2064:	49 89 de             	mov    %rbx,%r14
    2067:	48 c7 44 24 10 02 00 	movq   $0x2,0x10(%rsp)
    206e:	00 00 
    2070:	e8 00 00 00 00       	call   2075 <__stubAPPLY3+0x61>
    2075:	e9 01 e1 ff ff       	jmp    17b <caml_interprete+0x17b>
    207a:	4c 89 f8             	mov    %r15,%rax
    207d:	4d 89 f7             	mov    %r14,%r15
    2080:	49 89 c6             	mov    %rax,%r14

0000000000002083 <__stubAPPTERM1>:
    2083:	49 63 57 04          	movslq 0x4(%r15),%rdx
    2087:	48 8b 00             	mov    (%rax),%rax
    208a:	4d 8d 74 d6 f8       	lea    -0x8(%r14,%rdx,8),%r14
    208f:	49 89 06             	mov    %rax,(%r14)
    2092:	4d 8b 7d 00          	mov    0x0(%r13),%r15
    2096:	e9 e0 e0 ff ff       	jmp    17b <caml_interprete+0x17b>

000000000000209b <__stubCLOSURE>:
    209b:	41 8b 5e 04          	mov    0x4(%r14),%ebx
    209f:	49 8d 46 08          	lea    0x8(%r14),%rax
    20a3:	48 89 84 24 a0 00 00 	mov    %rax,0xa0(%rsp)
    20aa:	00 
    20ab:	85 db                	test   %ebx,%ebx
    20ad:	7e 08                	jle    20b7 <__stubCLOSURE+0x1c>
    20af:	4d 89 6f f8          	mov    %r13,-0x8(%r15)
    20b3:	49 83 ef 08          	sub    $0x8,%r15
    20b7:	8d 6b 02             	lea    0x2(%rbx),%ebp
    20ba:	81 fb fe 00 00 00    	cmp    $0xfe,%ebx
    20c0:	0f 8f a5 05 00 00    	jg     266b <__stubAPPTERM3+0x295>
    20c6:	85 ed                	test   %ebp,%ebp
    20c8:	0f 8e de 0e 00 00    	jle    2fac <__stubAPPTERM3+0xbd6>
    20ce:	44 8d 63 03          	lea    0x3(%rbx),%r12d
    20d2:	48 8b 05 00 00 00 00 	mov    0x0(%rip),%rax        # 20d9 <__stubCLOSURE+0x3e>
    20d9:	4c 89 ee             	mov    %r13,%rsi
    20dc:	41 89 ed             	mov    %ebp,%r13d
    20df:	4d 63 e4             	movslq %r12d,%r12
    20e2:	89 dd                	mov    %ebx,%ebp
    20e4:	49 c1 e4 03          	shl    $0x3,%r12
    20e8:	64 48 8b 10          	mov    %fs:(%rax),%rdx
    20ec:	4c 89 e0             	mov    %r12,%rax
    20ef:	48 f7 d8             	neg    %rax
    20f2:	48 89 d3             	mov    %rdx,%rbx
    20f5:	48 89 84 24 b0 00 00 	mov    %rax,0xb0(%rsp)
    20fc:	00 
    20fd:	48 8b 42 08          	mov    0x8(%rdx),%rax
    2101:	4c 29 e0             	sub    %r12,%rax
    2104:	48 89 43 08          	mov    %rax,0x8(%rbx)
    2108:	48 89 b4 24 20 01 00 	mov    %rsi,0x120(%rsp)
    210f:	00 
    2110:	e8 00 00 00 00       	call   2115 <__stubCLOSURE+0x7a>
    2115:	48 8b 4b 08          	mov    0x8(%rbx),%rcx
    2119:	48 8b 03             	mov    (%rbx),%rax
    211c:	48 8b b4 24 20 01 00 	mov    0x120(%rsp),%rsi
    2123:	00 
    2124:	48 39 c1             	cmp    %rax,%rcx
    2127:	0f 82 f3 0a 00 00    	jb     2c20 <__stubAPPTERM3+0x84a>
    212d:	48 89 da             	mov    %rbx,%rdx
    2130:	89 eb                	mov    %ebp,%ebx
    2132:	49 63 ed             	movslq %r13d,%rbp
    2135:	48 89 e8             	mov    %rbp,%rax
    2138:	48 c1 e0 0a          	shl    $0xa,%rax
    213c:	48 05 f7 00 00 00    	add    $0xf7,%rax
    2142:	48 89 01             	mov    %rax,(%rcx)
    2145:	48 8b 72 08          	mov    0x8(%rdx),%rsi
    2149:	31 c0                	xor    %eax,%eax
    214b:	48 b9 d7 d6 10 d7 d7 	movabs $0xd710d7d7d710d6d7,%rcx
    2152:	d7 10 d7 
    2155:	48 8d 7e 08          	lea    0x8(%rsi),%rdi
    2159:	49 89 fd             	mov    %rdi,%r13
    215c:	48 89 fa             	mov    %rdi,%rdx
    215f:	48 89 4c c6 08       	mov    %rcx,0x8(%rsi,%rax,8)
    2164:	48 83 c0 01          	add    $0x1,%rax
    2168:	48 39 c5             	cmp    %rax,%rbp
    216b:	75 f2                	jne    215f <__stubCLOSURE+0xc4>
    216d:	85 db                	test   %ebx,%ebx
    216f:	7e 17                	jle    2188 <__stubCLOSURE+0xed>
    2171:	41 89 d8             	mov    %ebx,%r8d
    2174:	31 c0                	xor    %eax,%eax
    2176:	49 8b 0c c7          	mov    (%r15,%rax,8),%rcx
    217a:	48 89 4c c6 18       	mov    %rcx,0x18(%rsi,%rax,8)
    217f:	48 83 c0 01          	add    $0x1,%rax
    2183:	49 39 c0             	cmp    %rax,%r8
    2186:	75 ee                	jne    2176 <__stubCLOSURE+0xdb>
    2188:	49 63 46 08          	movslq 0x8(%r14),%rax
    218c:	48 8b b4 24 a0 00 00 	mov    0xa0(%rsp),%rsi
    2193:	00 
    2194:	48 63 db             	movslq %ebx,%rbx
    2197:	49 83 c6 0c          	add    $0xc,%r14
    219b:	4d 8d 3c df          	lea    (%r15,%rbx,8),%r15
    219f:	48 8d 04 86          	lea    (%rsi,%rax,4),%rax
    21a3:	48 89 07             	mov    %rax,(%rdi)
    21a6:	48 c7 42 08 05 00 00 	movq   $0x5,0x8(%rdx)
    21ad:	00 
    21ae:	e9 15 e1 ff ff       	jmp    2c8 <__stubCHECK_SIGNALS+0x12f>

00000000000021b3 <__stubMAKEBLOCK>:
    21b3:	49 63 6e 04          	movslq 0x4(%r14),%rbp
    21b7:	49 8d 46 0c          	lea    0xc(%r14),%rax
    21bb:	45 8b 76 08          	mov    0x8(%r14),%r14d
    21bf:	48 89 84 24 80 00 00 	mov    %rax,0x80(%rsp)
    21c6:	00 
    21c7:	48 81 fd 00 01 00 00 	cmp    $0x100,%rbp
    21ce:	0f 87 3f 07 00 00    	ja     2913 <__stubAPPTERM3+0x53d>
    21d4:	48 85 ed             	test   %rbp,%rbp
    21d7:	0f 84 68 0e 00 00    	je     3045 <__stubAPPTERM3+0xc6f>
    21dd:	41 81 fe ff 00 00 00 	cmp    $0xff,%r14d
    21e4:	0f 87 d8 0e 00 00    	ja     30c2 <__stubAPPTERM3+0xcec>
    21ea:	48 8b 05 00 00 00 00 	mov    0x0(%rip),%rax        # 21f1 <__stubMAKEBLOCK+0x3e>
    21f1:	48 8d 1c ed 00 00 00 	lea    0x0(,%rbp,8),%rbx
    21f8:	00 
    21f9:	49 c7 c4 f8 ff ff ff 	mov    $0xfffffffffffffff8,%r12
    2200:	48 8d 7b 08          	lea    0x8(%rbx),%rdi
    2204:	49 29 dc             	sub    %rbx,%r12
    2207:	64 48 8b 08          	mov    %fs:(%rax),%rcx
    220b:	48 89 bc 24 d8 00 00 	mov    %rdi,0xd8(%rsp)
    2212:	00 
    2213:	4c 89 ef             	mov    %r13,%rdi
    2216:	4d 89 fd             	mov    %r15,%r13
    2219:	45 89 f7             	mov    %r14d,%r15d
    221c:	49 89 ee             	mov    %rbp,%r14
    221f:	48 89 dd             	mov    %rbx,%rbp
    2222:	48 8b 41 08          	mov    0x8(%rcx),%rax
    2226:	48 89 cb             	mov    %rcx,%rbx
    2229:	4c 01 e0             	add    %r12,%rax
    222c:	48 89 43 08          	mov    %rax,0x8(%rbx)
    2230:	48 89 bc 24 40 01 00 	mov    %rdi,0x140(%rsp)
    2237:	00 
    2238:	e8 00 00 00 00       	call   223d <__stubMAKEBLOCK+0x8a>
    223d:	4c 8b 43 08          	mov    0x8(%rbx),%r8
    2241:	48 8b 03             	mov    (%rbx),%rax
    2244:	48 8b bc 24 40 01 00 	mov    0x140(%rsp),%rdi
    224b:	00 
    224c:	49 39 c0             	cmp    %rax,%r8
    224f:	0f 82 0b 0e 00 00    	jb     3060 <__stubAPPTERM3+0xc8a>
    2255:	4c 89 f0             	mov    %r14,%rax
    2258:	44 89 fe             	mov    %r15d,%esi
    225b:	48 89 d9             	mov    %rbx,%rcx
    225e:	48 89 eb             	mov    %rbp,%rbx
    2261:	48 c1 e0 0a          	shl    $0xa,%rax
    2265:	4d 89 ef             	mov    %r13,%r15
    2268:	4c 89 f5             	mov    %r14,%rbp
    226b:	48 01 f0             	add    %rsi,%rax
    226e:	49 89 00             	mov    %rax,(%r8)
    2271:	48 8b 71 08          	mov    0x8(%rcx),%rsi
    2275:	48 b9 d7 d6 10 d7 d7 	movabs $0xd710d7d7d710d6d7,%rcx
    227c:	d7 10 d7 
    227f:	4c 8d 6e 08          	lea    0x8(%rsi),%r13
    2283:	48 89 f0             	mov    %rsi,%rax
    2286:	48 01 f3             	add    %rsi,%rbx
    2289:	48 89 48 08          	mov    %rcx,0x8(%rax)
    228d:	48 83 c0 08          	add    $0x8,%rax
    2291:	48 39 c3             	cmp    %rax,%rbx
    2294:	75 f3                	jne    2289 <__stubMAKEBLOCK+0xd6>
    2296:	48 89 7e 08          	mov    %rdi,0x8(%rsi)
    229a:	48 83 fd 01          	cmp    $0x1,%rbp
    229e:	0f 86 94 0d 00 00    	jbe    3038 <__stubAPPTERM3+0xc62>
    22a4:	b8 01 00 00 00       	mov    $0x1,%eax
    22a9:	49 8b 54 c7 f8       	mov    -0x8(%r15,%rax,8),%rdx
    22ae:	48 89 c1             	mov    %rax,%rcx
    22b1:	48 89 54 c6 08       	mov    %rdx,0x8(%rsi,%rax,8)
    22b6:	48 83 c0 01          	add    $0x1,%rax
    22ba:	48 39 c5             	cmp    %rax,%rbp
    22bd:	75 ea                	jne    22a9 <__stubMAKEBLOCK+0xf6>
    22bf:	4c 8b b4 24 80 00 00 	mov    0x80(%rsp),%r14
    22c6:	00 
    22c7:	4d 8d 3c cf          	lea    (%r15,%rcx,8),%r15
    22cb:	e9 f8 df ff ff       	jmp    2c8 <__stubCHECK_SIGNALS+0x12f>

00000000000022d0 <__stubMAKEBLOCK1>:
    22d0:	41 8b 5e 04          	mov    0x4(%r14),%ebx
    22d4:	49 8d 6e 08          	lea    0x8(%r14),%rbp
    22d8:	81 fb ff 00 00 00    	cmp    $0xff,%ebx
    22de:	0f 87 4b 0c 00 00    	ja     2f2f <__stubAPPTERM3+0xb59>
    22e4:	48 8b 05 00 00 00 00 	mov    0x0(%rip),%rax        # 22eb <__stubMAKEBLOCK1+0x1b>
    22eb:	4d 89 ee             	mov    %r13,%r14
    22ee:	4c 8b 6c 24 08       	mov    0x8(%rsp),%r13
    22f3:	64 4c 8b 20          	mov    %fs:(%rax),%r12
    22f7:	49 8b 44 24 08       	mov    0x8(%r12),%rax
    22fc:	48 83 e8 10          	sub    $0x10,%rax
    2300:	49 89 44 24 08       	mov    %rax,0x8(%r12)
    2305:	e8 00 00 00 00       	call   230a <__stubMAKEBLOCK1+0x3a>
    230a:	49 8b 4c 24 08       	mov    0x8(%r12),%rcx
    230f:	49 8b 04 24          	mov    (%r12),%rax
    2313:	48 39 c1             	cmp    %rax,%rcx
    2316:	0f 82 9f 06 00 00    	jb     29bb <__stubAPPTERM3+0x5e5>
    231c:	89 d8                	mov    %ebx,%eax
    231e:	48 05 00 04 00 00    	add    $0x400,%rax
    2324:	48 89 01             	mov    %rax,(%rcx)
    2327:	49 8b 44 24 08       	mov    0x8(%r12),%rax
    232c:	4c 89 70 08          	mov    %r14,0x8(%rax)
    2330:	4c 8d 68 08          	lea    0x8(%rax),%r13
    2334:	49 89 ee             	mov    %rbp,%r14
    2337:	e9 8c df ff ff       	jmp    2c8 <__stubCHECK_SIGNALS+0x12f>

000000000000233c <__stubSETGLOBAL>:
    233c:	48 8b 05 00 00 00 00 	mov    0x0(%rip),%rax        # 2343 <__stubSETGLOBAL+0x7>
    2343:	49 63 56 04          	movslq 0x4(%r14),%rdx
    2347:	4c 89 ee             	mov    %r13,%rsi
    234a:	49 83 c6 08          	add    $0x8,%r14
    234e:	41 bd 01 00 00 00    	mov    $0x1,%r13d
    2354:	48 8d 3c d0          	lea    (%rax,%rdx,8),%rdi
    2358:	e8 00 00 00 00       	call   235d <__stubSETGLOBAL+0x21>
    235d:	e9 66 df ff ff       	jmp    2c8 <__stubCHECK_SIGNALS+0x12f>

0000000000002362 <__stubPUSH_RETADDR>:
    2362:	49 63 46 04          	movslq 0x4(%r14),%rax
    2366:	49 83 ef 18          	sub    $0x18,%r15
    236a:	4d 89 67 10          	mov    %r12,0x10(%r15)
    236e:	49 83 c6 08          	add    $0x8,%r14
    2372:	48 8d 44 85 00       	lea    0x0(%rbp,%rax,4),%rax
    2377:	49 89 07             	mov    %rax,(%r15)
    237a:	48 8b 44 24 18       	mov    0x18(%rsp),%rax
    237f:	49 89 47 08          	mov    %rax,0x8(%r15)
    2383:	e9 40 df ff ff       	jmp    2c8 <__stubCHECK_SIGNALS+0x12f>

0000000000002388 <__stubPUSHACC1>:
    2388:	4d 89 6f f8          	mov    %r13,-0x8(%r15)
    238c:	49 89 ee             	mov    %rbp,%r14
    238f:	4d 8b 2f             	mov    (%r15),%r13
    2392:	49 83 ef 08          	sub    $0x8,%r15
    2396:	e9 2d df ff ff       	jmp    2c8 <__stubCHECK_SIGNALS+0x12f>

000000000000239b <__stubPUSHENVACC3>:
    239b:	48 8b 44 24 18       	mov    0x18(%rsp),%rax
    23a0:	4d 89 6f f8          	mov    %r13,-0x8(%r15)
    23a4:	49 89 ee             	mov    %rbp,%r14
    23a7:	49 83 ef 08          	sub    $0x8,%r15
    23ab:	4c 8b 68 18          	mov    0x18(%rax),%r13
    23af:	e9 14 df ff ff       	jmp    2c8 <__stubCHECK_SIGNALS+0x12f>

00000000000023b4 <__stubPUSHENVACC4>:
    23b4:	48 8b 44 24 18       	mov    0x18(%rsp),%rax
    23b9:	4d 89 6f f8          	mov    %r13,-0x8(%r15)
    23bd:	49 89 ee             	mov    %rbp,%r14
    23c0:	49 83 ef 08          	sub    $0x8,%r15
    23c4:	4c 8b 68 20          	mov    0x20(%rax),%r13
    23c8:	e9 fb de ff ff       	jmp    2c8 <__stubCHECK_SIGNALS+0x12f>
    23cd:	4c 89 f8             	mov    %r15,%rax
    23d0:	4d 89 f7             	mov    %r14,%r15
    23d3:	49 89 c6             	mov    %rax,%r14

00000000000023d6 <__stubAPPTERM3>:
    23d6:	49 63 77 04          	movslq 0x4(%r15),%rsi
    23da:	48 8b 08             	mov    (%rax),%rcx
    23dd:	48 8b 50 08          	mov    0x8(%rax),%rdx
    23e1:	48 8b 40 10          	mov    0x10(%rax),%rax
    23e5:	4d 8d 74 f6 e8       	lea    -0x18(%r14,%rsi,8),%r14
    23ea:	48 83 44 24 10 02    	addq   $0x2,0x10(%rsp)
    23f0:	49 89 0e             	mov    %rcx,(%r14)
    23f3:	49 89 56 08          	mov    %rdx,0x8(%r14)
    23f7:	49 89 46 10          	mov    %rax,0x10(%r14)
    23fb:	4d 8b 7d 00          	mov    0x0(%r13),%r15
    23ff:	e9 77 dd ff ff       	jmp    17b <caml_interprete+0x17b>
    2404:	8d 70 fe             	lea    -0x2(%rax),%esi
    2407:	e9 d3 e9 ff ff       	jmp    ddf <__stubGETDYNMET+0x2b>
    240c:	4c 8b b4 24 f8 00 00 	mov    0xf8(%rsp),%r14
    2413:	00 
    2414:	4c 8b ac 24 00 01 00 	mov    0x100(%rsp),%r13
    241b:	00 
    241c:	48 8b 44 24 60       	mov    0x60(%rsp),%rax
    2421:	48 8d 35 00 00 00 00 	lea    0x0(%rip),%rsi        # 2428 <__stubAPPTERM3+0x52>
    2428:	bf 01 00 00 00       	mov    $0x1,%edi
    242d:	8b 50 10             	mov    0x10(%rax),%edx
    2430:	31 c0                	xor    %eax,%eax
    2432:	e8 00 00 00 00       	call   2437 <__stubAPPTERM3+0x61>
    2437:	4c 8b 7c 24 48       	mov    0x48(%rsp),%r15
    243c:	48 8d 35 00 00 00 00 	lea    0x0(%rip),%rsi        # 2443 <__stubAPPTERM3+0x6d>
    2443:	31 c0                	xor    %eax,%eax
    2445:	bf 01 00 00 00       	mov    $0x1,%edi
    244a:	49 8b 6f 08          	mov    0x8(%r15),%rbp
    244e:	48 89 ea             	mov    %rbp,%rdx
    2451:	e8 00 00 00 00       	call   2456 <__stubAPPTERM3+0x80>
    2456:	49 8b 57 18          	mov    0x18(%r15),%rdx
    245a:	bf 01 00 00 00       	mov    $0x1,%edi
    245f:	31 c0                	xor    %eax,%eax
    2461:	48 8d 35 00 00 00 00 	lea    0x0(%rip),%rsi        # 2468 <__stubAPPTERM3+0x92>
    2468:	e8 00 00 00 00       	call   246d <__stubAPPTERM3+0x97>
    246d:	49 8b 57 10          	mov    0x10(%r15),%rdx
    2471:	bf 01 00 00 00       	mov    $0x1,%edi
    2476:	31 c0                	xor    %eax,%eax
    2478:	48 8d 35 00 00 00 00 	lea    0x0(%rip),%rsi        # 247f <__stubAPPTERM3+0xa9>
    247f:	e8 00 00 00 00       	call   2484 <__stubAPPTERM3+0xae>
    2484:	49 8b 5f 20          	mov    0x20(%r15),%rbx
    2488:	bf 01 00 00 00       	mov    $0x1,%edi
    248d:	31 c0                	xor    %eax,%eax
    248f:	48 8d 35 00 00 00 00 	lea    0x0(%rip),%rsi        # 2496 <__stubAPPTERM3+0xc0>
    2496:	48 89 da             	mov    %rbx,%rdx
    2499:	e8 00 00 00 00       	call   249e <__stubAPPTERM3+0xc8>
    249e:	48 8d 43 ff          	lea    -0x1(%rbx),%rax
    24a2:	4d 8b 27             	mov    (%r15),%r12
    24a5:	48 8d 1d 00 00 00 00 	lea    0x0(%rip),%rbx        # 24ac <__stubAPPTERM3+0xd6>
    24ac:	48 89 84 24 88 00 00 	mov    %rax,0x88(%rsp)
    24b3:	00 
    24b4:	45 31 ff             	xor    %r15d,%r15d
    24b7:	31 c0                	xor    %eax,%eax
    24b9:	48 85 ed             	test   %rbp,%rbp
    24bc:	74 56                	je     2514 <__stubAPPTERM3+0x13e>
    24be:	4c 89 ef             	mov    %r13,%rdi
    24c1:	4d 89 e5             	mov    %r12,%r13
    24c4:	45 89 fc             	mov    %r15d,%r12d
    24c7:	49 89 ff             	mov    %rdi,%r15
    24ca:	eb 1b                	jmp    24e7 <__stubAPPTERM3+0x111>
    24cc:	48 89 de             	mov    %rbx,%rsi
    24cf:	bf 01 00 00 00       	mov    $0x1,%edi
    24d4:	31 c0                	xor    %eax,%eax
    24d6:	e8 00 00 00 00       	call   24db <__stubAPPTERM3+0x105>
    24db:	41 83 c4 01          	add    $0x1,%r12d
    24df:	49 63 c4             	movslq %r12d,%rax
    24e2:	48 39 e8             	cmp    %rbp,%rax
    24e5:	73 27                	jae    250e <__stubAPPTERM3+0x138>
    24e7:	49 8b 4c c5 00       	mov    0x0(%r13,%rax,8),%rcx
    24ec:	44 89 e2             	mov    %r12d,%edx
    24ef:	48 3b 84 24 88 00 00 	cmp    0x88(%rsp),%rax
    24f6:	00 
    24f7:	75 d3                	jne    24cc <__stubAPPTERM3+0xf6>
    24f9:	48 8d 35 00 00 00 00 	lea    0x0(%rip),%rsi        # 2500 <__stubAPPTERM3+0x12a>
    2500:	bf 01 00 00 00       	mov    $0x1,%edi
    2505:	31 c0                	xor    %eax,%eax
    2507:	e8 00 00 00 00       	call   250c <__stubAPPTERM3+0x136>
    250c:	eb cd                	jmp    24db <__stubAPPTERM3+0x105>
    250e:	4d 89 ec             	mov    %r13,%r12
    2511:	4d 89 fd             	mov    %r15,%r13
    2514:	4c 89 e7             	mov    %r12,%rdi
    2517:	e8 00 00 00 00       	call   251c <__stubAPPTERM3+0x146>
    251c:	48 8b 7c 24 48       	mov    0x48(%rsp),%rdi
    2521:	e8 00 00 00 00       	call   2526 <__stubAPPTERM3+0x150>
    2526:	48 8b 5c 24 50       	mov    0x50(%rsp),%rbx
    252b:	48 8b 3b             	mov    (%rbx),%rdi
    252e:	e8 00 00 00 00       	call   2533 <__stubAPPTERM3+0x15d>
    2533:	48 89 df             	mov    %rbx,%rdi
    2536:	e8 00 00 00 00       	call   253b <__stubAPPTERM3+0x165>
    253b:	48 8b 44 24 08       	mov    0x8(%rsp),%rax
    2540:	48 8b 7c 24 68       	mov    0x68(%rsp),%rdi
    2545:	48 89 b8 e8 01 00 00 	mov    %rdi,0x1e8(%rax)
    254c:	48 8b 7c 24 70       	mov    0x70(%rsp),%rdi
    2551:	48 89 b8 d8 01 00 00 	mov    %rdi,0x1d8(%rax)
    2558:	48 8b 40 20          	mov    0x20(%rax),%rax
    255c:	4c 89 30             	mov    %r14,(%rax)
    255f:	e9 bb e2 ff ff       	jmp    81f <__stubATOM0+0x7b>
    2564:	48 8b 05 00 00 00 00 	mov    0x0(%rip),%rax        # 256b <__stubAPPTERM3+0x195>
    256b:	49 89 de             	mov    %rbx,%r14
    256e:	4c 8b 68 68          	mov    0x68(%rax),%r13
    2572:	e9 09 ef ff ff       	jmp    1480 <__stubRAISE>
    2577:	be 01 00 00 00       	mov    $0x1,%esi
    257c:	bf 04 00 00 00       	mov    $0x4,%edi
    2581:	e8 00 00 00 00       	call   2586 <__stubAPPTERM3+0x1b0>
    2586:	e9 0e ef ff ff       	jmp    1499 <__stubRAISE+0x19>
    258b:	8b 39                	mov    (%rcx),%edi
    258d:	ba 03 00 00 00       	mov    $0x3,%edx
    2592:	eb 1b                	jmp    25af <__stubAPPTERM3+0x1d9>
    2594:	0f 1f 40 00          	nopl   0x0(%rax)
    2598:	8d 04 3a             	lea    (%rdx,%rdi,1),%eax
    259b:	d1 f8                	sar    %eax
    259d:	83 c8 01             	or     $0x1,%eax
    25a0:	4c 63 c8             	movslq %eax,%r9
    25a3:	4e 39 04 c9          	cmp    %r8,(%rcx,%r9,8)
    25a7:	0f 8f cb 03 00 00    	jg     2978 <__stubAPPTERM3+0x5a2>
    25ad:	89 c2                	mov    %eax,%edx
    25af:	39 fa                	cmp    %edi,%edx
    25b1:	7c e5                	jl     2598 <__stubAPPTERM3+0x1c2>
    25b3:	8d 04 d5 e8 ff ff ff 	lea    -0x18(,%rdx,8),%eax
    25ba:	41 89 46 08          	mov    %eax,0x8(%r14)
    25be:	8d 42 ff             	lea    -0x1(%rdx),%eax
    25c1:	48 98                	cltq   
    25c3:	4c 8b 2c c1          	mov    (%rcx,%rax,8),%r13
    25c7:	e9 dc e7 ff ff       	jmp    da8 <__stubGETPUBMET+0x2e>
    25cc:	49 83 c6 0c          	add    $0xc,%r14
    25d0:	e9 f3 dc ff ff       	jmp    2c8 <__stubCHECK_SIGNALS+0x12f>
    25d5:	49 83 c6 0c          	add    $0xc,%r14
    25d9:	e9 ea dc ff ff       	jmp    2c8 <__stubCHECK_SIGNALS+0x12f>
    25de:	49 83 c6 0c          	add    $0xc,%r14
    25e2:	e9 e1 dc ff ff       	jmp    2c8 <__stubCHECK_SIGNALS+0x12f>
    25e7:	49 83 c6 0c          	add    $0xc,%r14
    25eb:	e9 d8 dc ff ff       	jmp    2c8 <__stubCHECK_SIGNALS+0x12f>
    25f0:	4c 89 ea             	mov    %r13,%rdx
    25f3:	0f b7 c0             	movzwl %ax,%eax
    25f6:	48 d1 fa             	sar    %rdx
    25f9:	48 39 d0             	cmp    %rdx,%rax
    25fc:	0f 86 a8 08 00 00    	jbe    2eaa <__stubAPPTERM3+0xad4>
    2602:	48 63 04 91          	movslq (%rcx,%rdx,4),%rax
    2606:	4c 8d 34 81          	lea    (%rcx,%rax,4),%r14
    260a:	e9 b9 dc ff ff       	jmp    2c8 <__stubCHECK_SIGNALS+0x12f>
    260f:	48 8b 7c 24 48       	mov    0x48(%rsp),%rdi
    2614:	e8 00 00 00 00       	call   2619 <__stubAPPTERM3+0x243>
    2619:	48 8b 44 24 08       	mov    0x8(%rsp),%rax
    261e:	49 8b 2f             	mov    (%r15),%rbp
    2621:	48 8b 78 20          	mov    0x20(%rax),%rdi
    2625:	4c 39 7f 10          	cmp    %r15,0x10(%rdi)
    2629:	0f 84 93 08 00 00    	je     2ec2 <__stubAPPTERM3+0xaec>
    262f:	49 8b 47 08          	mov    0x8(%r15),%rax
    2633:	49 89 ee             	mov    %rbp,%r14
    2636:	49 83 c7 18          	add    $0x18,%r15
    263a:	48 89 44 24 18       	mov    %rax,0x18(%rsp)
    263f:	49 8b 47 f8          	mov    -0x8(%r15),%rax
    2643:	48 d1 f8             	sar    %rax
    2646:	48 89 44 24 10       	mov    %rax,0x10(%rsp)
    264b:	e9 78 dc ff ff       	jmp    2c8 <__stubCHECK_SIGNALS+0x12f>
    2650:	49 83 c6 0c          	add    $0xc,%r14
    2654:	e9 6f dc ff ff       	jmp    2c8 <__stubCHECK_SIGNALS+0x12f>
    2659:	49 83 c6 0c          	add    $0xc,%r14
    265d:	e9 66 dc ff ff       	jmp    2c8 <__stubCHECK_SIGNALS+0x12f>
    2662:	49 83 c6 0c          	add    $0xc,%r14
    2666:	e9 5d dc ff ff       	jmp    2c8 <__stubCHECK_SIGNALS+0x12f>
    266b:	48 63 fd             	movslq %ebp,%rdi
    266e:	be f7 00 00 00       	mov    $0xf7,%esi
    2673:	89 dd                	mov    %ebx,%ebp
    2675:	4d 89 fd             	mov    %r15,%r13
    2678:	e8 00 00 00 00       	call   267d <__stubAPPTERM3+0x2a7>
    267d:	45 31 e4             	xor    %r12d,%r12d
    2680:	89 9c 24 38 01 00 00 	mov    %ebx,0x138(%rsp)
    2687:	49 89 c7             	mov    %rax,%r15
    268a:	48 89 c3             	mov    %rax,%rbx
    268d:	41 8d 44 24 02       	lea    0x2(%r12),%eax
    2692:	4b 8b 74 e5 00       	mov    0x0(%r13,%r12,8),%rsi
    2697:	49 83 c4 01          	add    $0x1,%r12
    269b:	48 98                	cltq   
    269d:	48 8d 3c c3          	lea    (%rbx,%rax,8),%rdi
    26a1:	e8 00 00 00 00       	call   26a6 <__stubAPPTERM3+0x2d0>
    26a6:	4c 39 e5             	cmp    %r12,%rbp
    26a9:	75 e2                	jne    268d <__stubAPPTERM3+0x2b7>
    26ab:	4c 89 f8             	mov    %r15,%rax
    26ae:	48 89 da             	mov    %rbx,%rdx
    26b1:	4d 89 ef             	mov    %r13,%r15
    26b4:	8b 9c 24 38 01 00 00 	mov    0x138(%rsp),%ebx
    26bb:	49 89 c5             	mov    %rax,%r13
    26be:	48 89 c7             	mov    %rax,%rdi
    26c1:	e9 c2 fa ff ff       	jmp    2188 <__stubCLOSURE+0xed>
    26c6:	be fe 00 00 00       	mov    $0xfe,%esi
    26cb:	4c 89 f7             	mov    %r14,%rdi
    26ce:	e8 00 00 00 00       	call   26d3 <__stubAPPTERM3+0x2fd>
    26d3:	f2 41 0f 10 45 00    	movsd  0x0(%r13),%xmm0
    26d9:	48 89 c2             	mov    %rax,%rdx
    26dc:	49 89 c5             	mov    %rax,%r13
    26df:	f2 0f 11 00          	movsd  %xmm0,(%rax)
    26e3:	e9 55 f3 ff ff       	jmp    1a3d <__stubMAKEFLOATBLOCK+0xd1>
    26e8:	be f7 00 00 00       	mov    $0xf7,%esi
    26ed:	89 8c 24 3c 01 00 00 	mov    %ecx,0x13c(%rsp)
    26f4:	e8 00 00 00 00       	call   26f9 <__stubAPPTERM3+0x323>
    26f9:	8b 94 24 3c 01 00 00 	mov    0x13c(%rsp),%edx
    2700:	49 89 c5             	mov    %rax,%r13
    2703:	4a 8d 04 e0          	lea    (%rax,%r12,8),%rax
    2707:	48 8d 3c d0          	lea    (%rax,%rdx,8),%rdi
    270b:	48 89 d1             	mov    %rdx,%rcx
    270e:	4c 89 fa             	mov    %r15,%rdx
    2711:	48 89 bc 24 90 00 00 	mov    %rdi,0x90(%rsp)
    2718:	00 
    2719:	48 29 c2             	sub    %rax,%rdx
    271c:	85 c9                	test   %ecx,%ecx
    271e:	7e 3f                	jle    275f <__stubAPPTERM3+0x389>
    2720:	89 9c 24 10 01 00 00 	mov    %ebx,0x110(%rsp)
    2727:	48 89 c3             	mov    %rax,%rbx
    272a:	48 89 ac 24 08 01 00 	mov    %rbp,0x108(%rsp)
    2731:	00 
    2732:	48 89 d5             	mov    %rdx,%rbp
    2735:	48 8b 34 2b          	mov    (%rbx,%rbp,1),%rsi
    2739:	48 89 df             	mov    %rbx,%rdi
    273c:	48 83 c3 08          	add    $0x8,%rbx
    2740:	e8 00 00 00 00       	call   2745 <__stubAPPTERM3+0x36f>
    2745:	48 39 9c 24 90 00 00 	cmp    %rbx,0x90(%rsp)
    274c:	00 
    274d:	75 e6                	jne    2735 <__stubAPPTERM3+0x35f>
    274f:	48 63 9c 24 10 01 00 	movslq 0x110(%rsp),%rbx
    2756:	00 
    2757:	48 8b ac 24 08 01 00 	mov    0x108(%rsp),%rbp
    275e:	00 
    275f:	4c 89 e8             	mov    %r13,%rax
    2762:	e9 90 f6 ff ff       	jmp    1df7 <__stubCLOSUREREC+0x153>
    2767:	48 8d 0d 00 00 00 00 	lea    0x0(%rip),%rcx        # 276e <__stubAPPTERM3+0x398>
    276e:	31 d2                	xor    %edx,%edx
    2770:	bf 01 00 00 00       	mov    $0x1,%edi
    2775:	31 c0                	xor    %eax,%eax
    2777:	48 8d 35 00 00 00 00 	lea    0x0(%rip),%rsi        # 277e <__stubAPPTERM3+0x3a8>
    277e:	e8 00 00 00 00       	call   2783 <__stubAPPTERM3+0x3ad>
    2783:	e9 2c f7 ff ff       	jmp    1eb4 <__stubAPPLY+0x1b>
    2788:	48 8d 0d 00 00 00 00 	lea    0x0(%rip),%rcx        # 278f <__stubAPPTERM3+0x3b9>
    278f:	31 d2                	xor    %edx,%edx
    2791:	bf 01 00 00 00       	mov    $0x1,%edi
    2796:	31 c0                	xor    %eax,%eax
    2798:	48 8d 35 00 00 00 00 	lea    0x0(%rip),%rsi        # 279f <__stubAPPTERM3+0x3c9>
    279f:	e8 00 00 00 00       	call   27a4 <__stubAPPTERM3+0x3ce>
    27a4:	e9 55 f7 ff ff       	jmp    1efe <__stubAPPLY1+0x28>
    27a9:	48 8b 44 24 10       	mov    0x10(%rsp),%rax
    27ae:	48 8d 78 01          	lea    0x1(%rax),%rdi
    27b2:	48 89 bc 24 f0 00 00 	mov    %rdi,0xf0(%rsp)
    27b9:	00 
    27ba:	48 83 f8 fc          	cmp    $0xfffffffffffffffc,%rax
    27be:	0f 84 56 08 00 00    	je     301a <__stubAPPTERM3+0xc44>
    27c4:	48 8d 6b 04          	lea    0x4(%rbx),%rbp
    27c8:	48 81 fd 00 01 00 00 	cmp    $0x100,%rbp
    27cf:	0f 87 2d 08 00 00    	ja     3002 <__stubAPPTERM3+0xc2c>
    27d5:	48 8b 15 00 00 00 00 	mov    0x0(%rip),%rdx        # 27dc <__stubAPPTERM3+0x406>
    27dc:	4c 8d 24 ed 00 00 00 	lea    0x0(,%rbp,8),%r12
    27e3:	00 
    27e4:	48 c7 c3 f8 ff ff ff 	mov    $0xfffffffffffffff8,%rbx
    27eb:	4c 89 e9             	mov    %r13,%rcx
    27ee:	49 8d 7c 24 08       	lea    0x8(%r12),%rdi
    27f3:	4c 29 e3             	sub    %r12,%rbx
    27f6:	4d 89 e5             	mov    %r12,%r13
    27f9:	49 89 ec             	mov    %rbp,%r12
    27fc:	64 48 8b 02          	mov    %fs:(%rdx),%rax
    2800:	48 89 bc 24 a8 00 00 	mov    %rdi,0xa8(%rsp)
    2807:	00 
    2808:	48 89 dd             	mov    %rbx,%rbp
    280b:	48 8b 50 08          	mov    0x8(%rax),%rdx
    280f:	48 01 da             	add    %rbx,%rdx
    2812:	48 89 c3             	mov    %rax,%rbx
    2815:	48 89 53 08          	mov    %rdx,0x8(%rbx)
    2819:	48 89 8c 24 18 01 00 	mov    %rcx,0x118(%rsp)
    2820:	00 
    2821:	e8 00 00 00 00       	call   2826 <__stubAPPTERM3+0x450>
    2826:	48 8b 73 08          	mov    0x8(%rbx),%rsi
    282a:	48 8b 13             	mov    (%rbx),%rdx
    282d:	48 8b 8c 24 18 01 00 	mov    0x118(%rsp),%rcx
    2834:	00 
    2835:	48 39 d6             	cmp    %rdx,%rsi
    2838:	0f 82 62 03 00 00    	jb     2ba0 <__stubAPPTERM3+0x7ca>
    283e:	4c 89 e5             	mov    %r12,%rbp
    2841:	4d 89 ec             	mov    %r13,%r12
    2844:	48 89 ea             	mov    %rbp,%rdx
    2847:	48 c1 e2 0a          	shl    $0xa,%rdx
    284b:	48 81 c2 f7 00 00 00 	add    $0xf7,%rdx
    2852:	48 89 16             	mov    %rdx,(%rsi)
    2855:	48 8b 73 08          	mov    0x8(%rbx),%rsi
    2859:	4c 8d 6e 08          	lea    0x8(%rsi),%r13
    285d:	4c 89 e8             	mov    %r13,%rax
    2860:	48 85 ed             	test   %rbp,%rbp
    2863:	74 1e                	je     2883 <__stubAPPTERM3+0x4ad>
    2865:	4e 8d 44 26 08       	lea    0x8(%rsi,%r12,1),%r8
    286a:	4c 89 ea             	mov    %r13,%rdx
    286d:	48 bf d7 d6 10 d7 d7 	movabs $0xd710d7d7d710d6d7,%rdi
    2874:	d7 10 d7 
    2877:	48 89 3a             	mov    %rdi,(%rdx)
    287a:	48 83 c2 08          	add    $0x8,%rdx
    287e:	49 39 d0             	cmp    %rdx,%r8
    2881:	75 f4                	jne    2877 <__stubAPPTERM3+0x4a1>
    2883:	48 8b 7c 24 18       	mov    0x18(%rsp),%rdi
    2888:	48 8d 50 18          	lea    0x18(%rax),%rdx
    288c:	4d 8d 04 04          	lea    (%r12,%rax,1),%r8
    2890:	48 89 78 10          	mov    %rdi,0x10(%rax)
    2894:	4c 89 ff             	mov    %r15,%rdi
    2897:	48 29 c7             	sub    %rax,%rdi
    289a:	48 83 bc 24 f0 00 00 	cmpq   $0x0,0xf0(%rsp)
    28a1:	00 00 
    28a3:	74 12                	je     28b7 <__stubAPPTERM3+0x4e1>
    28a5:	48 8b 4c 17 e8       	mov    -0x18(%rdi,%rdx,1),%rcx
    28aa:	48 83 c2 08          	add    $0x8,%rdx
    28ae:	48 89 4a f8          	mov    %rcx,-0x8(%rdx)
    28b2:	4c 39 c2             	cmp    %r8,%rdx
    28b5:	75 ee                	jne    28a5 <__stubAPPTERM3+0x4cf>
    28b7:	4d 8d 56 fc          	lea    -0x4(%r14),%r10
    28bb:	4f 8d 7c 27 e8       	lea    -0x18(%r15,%r12,1),%r15
    28c0:	4c 89 56 08          	mov    %r10,0x8(%rsi)
    28c4:	48 c7 40 08 05 00 00 	movq   $0x5,0x8(%rax)
    28cb:	00 
    28cc:	e9 48 fd ff ff       	jmp    2619 <__stubAPPTERM3+0x243>
    28d1:	48 8d 0d 00 00 00 00 	lea    0x0(%rip),%rcx        # 28d8 <__stubAPPTERM3+0x502>
    28d8:	31 d2                	xor    %edx,%edx
    28da:	bf 01 00 00 00       	mov    $0x1,%edi
    28df:	31 c0                	xor    %eax,%eax
    28e1:	48 8d 35 00 00 00 00 	lea    0x0(%rip),%rsi        # 28e8 <__stubAPPTERM3+0x512>
    28e8:	e8 00 00 00 00       	call   28ed <__stubAPPTERM3+0x517>
    28ed:	e9 5a f7 ff ff       	jmp    204c <__stubAPPLY3+0x38>
    28f2:	48 8d 0d 00 00 00 00 	lea    0x0(%rip),%rcx        # 28f9 <__stubAPPTERM3+0x523>
    28f9:	31 d2                	xor    %edx,%edx
    28fb:	bf 01 00 00 00       	mov    $0x1,%edi
    2900:	31 c0                	xor    %eax,%eax
    2902:	48 8d 35 00 00 00 00 	lea    0x0(%rip),%rsi        # 2909 <__stubAPPTERM3+0x533>
    2909:	e8 00 00 00 00       	call   290e <__stubAPPTERM3+0x538>
    290e:	e9 49 f6 ff ff       	jmp    1f5c <__stubAPPLY2+0x30>
    2913:	44 89 f6             	mov    %r14d,%esi
    2916:	48 89 ef             	mov    %rbp,%rdi
    2919:	41 bc 01 00 00 00    	mov    $0x1,%r12d
    291f:	e8 00 00 00 00       	call   2924 <__stubAPPTERM3+0x54e>
    2924:	4c 89 ee             	mov    %r13,%rsi
    2927:	48 89 c7             	mov    %rax,%rdi
    292a:	48 89 c3             	mov    %rax,%rbx
    292d:	e8 00 00 00 00       	call   2932 <__stubAPPTERM3+0x55c>
    2932:	49 8b 37             	mov    (%r15),%rsi
    2935:	4a 8d 3c e3          	lea    (%rbx,%r12,8),%rdi
    2939:	49 83 c4 01          	add    $0x1,%r12
    293d:	49 83 c7 08          	add    $0x8,%r15
    2941:	e8 00 00 00 00       	call   2946 <__stubAPPTERM3+0x570>
    2946:	4c 39 e5             	cmp    %r12,%rbp
    2949:	75 e7                	jne    2932 <__stubAPPTERM3+0x55c>
    294b:	4c 8b b4 24 80 00 00 	mov    0x80(%rsp),%r14
    2952:	00 
    2953:	49 89 dd             	mov    %rbx,%r13
    2956:	e9 6d d9 ff ff       	jmp    2c8 <__stubCHECK_SIGNALS+0x12f>
    295b:	49 83 c6 08          	add    $0x8,%r14
    295f:	e9 64 d9 ff ff       	jmp    2c8 <__stubCHECK_SIGNALS+0x12f>
    2964:	be 01 00 00 00       	mov    $0x1,%esi
    2969:	bf 04 00 00 00       	mov    $0x4,%edi
    296e:	e8 00 00 00 00       	call   2973 <__stubAPPTERM3+0x59d>
    2973:	e9 8e e6 ff ff       	jmp    1006 <__stubRERAISE+0x19>
    2978:	8d 78 fe             	lea    -0x2(%rax),%edi
    297b:	e9 2f fc ff ff       	jmp    25af <__stubAPPTERM3+0x1d9>
    2980:	49 63 46 04          	movslq 0x4(%r14),%rax
    2984:	4c 8d 74 85 00       	lea    0x0(%rbp,%rax,4),%r14
    2989:	e9 3a d9 ff ff       	jmp    2c8 <__stubCHECK_SIGNALS+0x12f>
    298e:	49 63 46 08          	movslq 0x8(%r14),%rax
    2992:	4d 8d 74 86 08       	lea    0x8(%r14,%rax,4),%r14
    2997:	e9 2c d9 ff ff       	jmp    2c8 <__stubCHECK_SIGNALS+0x12f>
    299c:	e8 00 00 00 00       	call   29a1 <__stubAPPTERM3+0x5cb>
    29a1:	48 8b 35 00 00 00 00 	mov    0x0(%rip),%rsi        # 29a8 <__stubAPPTERM3+0x5d2>
    29a8:	49 89 c5             	mov    %rax,%r13
    29ab:	48 8b 05 00 00 00 00 	mov    0x0(%rip),%rax        # 29b2 <__stubAPPTERM3+0x5dc>
    29b2:	48 8b 78 60          	mov    0x60(%rax),%rdi
    29b6:	e9 16 e5 ff ff       	jmp    ed1 <__stubRESUME+0x38>
    29bb:	48 8b 44 24 18       	mov    0x18(%rsp),%rax
    29c0:	49 83 44 24 08 10    	addq   $0x10,0x8(%r12)
    29c6:	49 83 ef 18          	sub    $0x18,%r15
    29ca:	4d 89 37             	mov    %r14,(%r15)
    29cd:	49 89 47 08          	mov    %rax,0x8(%r15)
    29d1:	49 89 6f 10          	mov    %rbp,0x10(%r15)
    29d5:	49 8b 45 20          	mov    0x20(%r13),%rax
    29d9:	4c 89 38             	mov    %r15,(%rax)
    29dc:	e8 00 00 00 00       	call   29e1 <__stubAPPTERM3+0x60b>
    29e1:	49 8b 45 20          	mov    0x20(%r13),%rax
    29e5:	4c 8b 38             	mov    (%rax),%r15
    29e8:	49 8b 47 08          	mov    0x8(%r15),%rax
    29ec:	4d 8b 37             	mov    (%r15),%r14
    29ef:	49 83 c7 18          	add    $0x18,%r15
    29f3:	48 89 44 24 18       	mov    %rax,0x18(%rsp)
    29f8:	49 8b 44 24 08       	mov    0x8(%r12),%rax
    29fd:	48 83 e8 10          	sub    $0x10,%rax
    2a01:	e9 fa f8 ff ff       	jmp    2300 <__stubMAKEBLOCK1+0x30>
    2a06:	4c 8b b4 24 98 00 00 	mov    0x98(%rsp),%r14
    2a0d:	00 
    2a0e:	e9 b5 d8 ff ff       	jmp    2c8 <__stubCHECK_SIGNALS+0x12f>
    2a13:	48 8b 44 24 18       	mov    0x18(%rsp),%rax
    2a18:	49 83 44 24 08 18    	addq   $0x18,0x8(%r12)
    2a1e:	49 83 ef 18          	sub    $0x18,%r15
    2a22:	4d 89 37             	mov    %r14,(%r15)
    2a25:	49 89 47 08          	mov    %rax,0x8(%r15)
    2a29:	49 89 6f 10          	mov    %rbp,0x10(%r15)
    2a2d:	49 8b 45 20          	mov    0x20(%r13),%rax
    2a31:	4c 89 38             	mov    %r15,(%rax)
    2a34:	e8 00 00 00 00       	call   2a39 <__stubAPPTERM3+0x663>
    2a39:	49 8b 45 20          	mov    0x20(%r13),%rax
    2a3d:	4c 8b 38             	mov    (%rax),%r15
    2a40:	49 8b 47 08          	mov    0x8(%r15),%rax
    2a44:	4d 8b 37             	mov    (%r15),%r14
    2a47:	49 83 c7 18          	add    $0x18,%r15
    2a4b:	48 89 44 24 18       	mov    %rax,0x18(%rsp)
    2a50:	49 8b 44 24 08       	mov    0x8(%r12),%rax
    2a55:	48 83 e8 18          	sub    $0x18,%rax
    2a59:	e9 53 f0 ff ff       	jmp    1ab1 <__stubMAKEBLOCK2+0x30>
    2a5e:	48 8b 44 24 18       	mov    0x18(%rsp),%rax
    2a63:	49 83 44 24 08 20    	addq   $0x20,0x8(%r12)
    2a69:	49 83 ef 18          	sub    $0x18,%r15
    2a6d:	4d 89 37             	mov    %r14,(%r15)
    2a70:	49 89 47 08          	mov    %rax,0x8(%r15)
    2a74:	49 89 6f 10          	mov    %rbp,0x10(%r15)
    2a78:	49 8b 45 20          	mov    0x20(%r13),%rax
    2a7c:	4c 89 38             	mov    %r15,(%rax)
    2a7f:	e8 00 00 00 00       	call   2a84 <__stubAPPTERM3+0x6ae>
    2a84:	49 8b 45 20          	mov    0x20(%r13),%rax
    2a88:	4c 8b 38             	mov    (%rax),%r15
    2a8b:	49 8b 47 08          	mov    0x8(%r15),%rax
    2a8f:	4d 8b 37             	mov    (%r15),%r14
    2a92:	49 83 c7 18          	add    $0x18,%r15
    2a96:	48 89 44 24 18       	mov    %rax,0x18(%rsp)
    2a9b:	49 8b 44 24 08       	mov    0x8(%r12),%rax
    2aa0:	48 83 e8 20          	sub    $0x20,%rax
    2aa4:	e9 8e f0 ff ff       	jmp    1b37 <__stubMAKEBLOCK3+0x30>
    2aa9:	4c 89 f8             	mov    %r15,%rax
    2aac:	4d 89 f7             	mov    %r14,%r15
    2aaf:	49 89 c6             	mov    %rax,%r14
    2ab2:	e9 20 d7 ff ff       	jmp    1d7 <__stubCHECK_SIGNALS+0x3e>
    2ab7:	48 8b 44 24 18       	mov    0x18(%rsp),%rax
    2abc:	49 83 44 24 08 10    	addq   $0x10,0x8(%r12)
    2ac2:	49 83 ef 18          	sub    $0x18,%r15
    2ac6:	4d 89 2f             	mov    %r13,(%r15)
    2ac9:	49 89 47 08          	mov    %rax,0x8(%r15)
    2acd:	49 89 5f 10          	mov    %rbx,0x10(%r15)
    2ad1:	49 8b 46 20          	mov    0x20(%r14),%rax
    2ad5:	4c 89 38             	mov    %r15,(%rax)
    2ad8:	e8 00 00 00 00       	call   2add <__stubAPPTERM3+0x707>
    2add:	49 8b 46 20          	mov    0x20(%r14),%rax
    2ae1:	4c 8b 38             	mov    (%rax),%r15
    2ae4:	49 8b 47 08          	mov    0x8(%r15),%rax
    2ae8:	4d 8b 2f             	mov    (%r15),%r13
    2aeb:	49 83 c7 18          	add    $0x18,%r15
    2aef:	48 89 44 24 18       	mov    %rax,0x18(%rsp)
    2af4:	49 8b 44 24 08       	mov    0x8(%r12),%rax
    2af9:	48 83 e8 10          	sub    $0x10,%rax
    2afd:	e9 88 ec ff ff       	jmp    178a <__stubGETFLOATFIELD+0x26>
    2b02:	48 8b 44 24 18       	mov    0x18(%rsp),%rax
    2b07:	48 83 43 08 10       	addq   $0x10,0x8(%rbx)
    2b0c:	49 8d 57 e8          	lea    -0x18(%r15),%rdx
    2b10:	49 89 77 e8          	mov    %rsi,-0x18(%r15)
    2b14:	49 89 47 f0          	mov    %rax,-0x10(%r15)
    2b18:	48 8b 44 24 08       	mov    0x8(%rsp),%rax
    2b1d:	49 89 6f f8          	mov    %rbp,-0x8(%r15)
    2b21:	48 8b 40 20          	mov    0x20(%rax),%rax
    2b25:	48 89 10             	mov    %rdx,(%rax)
    2b28:	e8 00 00 00 00       	call   2b2d <__stubAPPTERM3+0x757>
    2b2d:	48 8b 44 24 08       	mov    0x8(%rsp),%rax
    2b32:	48 8b 40 20          	mov    0x20(%rax),%rax
    2b36:	48 8b 10             	mov    (%rax),%rdx
    2b39:	48 8b 42 08          	mov    0x8(%rdx),%rax
    2b3d:	48 8b 32             	mov    (%rdx),%rsi
    2b40:	4c 8d 7a 18          	lea    0x18(%rdx),%r15
    2b44:	48 89 44 24 18       	mov    %rax,0x18(%rsp)
    2b49:	48 8b 43 08          	mov    0x8(%rbx),%rax
    2b4d:	48 83 e8 10          	sub    $0x10,%rax
    2b51:	e9 6b e5 ff ff       	jmp    10c1 <__stubPERFORM+0x3c>
    2b56:	48 8b 05 00 00 00 00 	mov    0x0(%rip),%rax        # 2b5d <__stubAPPTERM3+0x787>
    2b5d:	4c 8b 68 60          	mov    0x60(%rax),%r13
    2b61:	e9 1a e9 ff ff       	jmp    1480 <__stubRAISE>
    2b66:	ba 05 08 00 00       	mov    $0x805,%edx
    2b6b:	48 8d 35 00 00 00 00 	lea    0x0(%rip),%rsi        # 2b72 <__stubAPPTERM3+0x79c>
    2b72:	48 8d 3d 00 00 00 00 	lea    0x0(%rip),%rdi        # 2b79 <__stubAPPTERM3+0x7a3>
    2b79:	e8 00 00 00 00       	call   2b7e <__stubAPPTERM3+0x7a8>
    2b7e:	ba 05 08 00 00       	mov    $0x805,%edx
    2b83:	48 8d 35 00 00 00 00 	lea    0x0(%rip),%rsi        # 2b8a <__stubAPPTERM3+0x7b4>
    2b8a:	48 8d 3d 00 00 00 00 	lea    0x0(%rip),%rdi        # 2b91 <__stubAPPTERM3+0x7bb>
    2b91:	e8 00 00 00 00       	call   2b96 <__stubAPPTERM3+0x7c0>
    2b96:	66 2e 0f 1f 84 00 00 	cs nopw 0x0(%rax,%rax,1)
    2b9d:	00 00 00 
    2ba0:	48 8b 84 24 a8 00 00 	mov    0xa8(%rsp),%rax
    2ba7:	00 
    2ba8:	48 01 43 08          	add    %rax,0x8(%rbx)
    2bac:	49 83 ef 18          	sub    $0x18,%r15
    2bb0:	48 8b 44 24 18       	mov    0x18(%rsp),%rax
    2bb5:	49 89 0f             	mov    %rcx,(%r15)
    2bb8:	49 89 47 08          	mov    %rax,0x8(%r15)
    2bbc:	48 8b 84 24 e8 00 00 	mov    0xe8(%rsp),%rax
    2bc3:	00 
    2bc4:	49 89 47 10          	mov    %rax,0x10(%r15)
    2bc8:	48 8b 44 24 08       	mov    0x8(%rsp),%rax
    2bcd:	48 8b 50 20          	mov    0x20(%rax),%rdx
    2bd1:	4c 89 3a             	mov    %r15,(%rdx)
    2bd4:	e8 00 00 00 00       	call   2bd9 <__stubAPPTERM3+0x803>
    2bd9:	48 8b 44 24 08       	mov    0x8(%rsp),%rax
    2bde:	48 8b 50 20          	mov    0x20(%rax),%rdx
    2be2:	4c 8b 3a             	mov    (%rdx),%r15
    2be5:	48 8b 53 08          	mov    0x8(%rbx),%rdx
    2be9:	49 8b 47 08          	mov    0x8(%r15),%rax
    2bed:	49 8b 0f             	mov    (%r15),%rcx
    2bf0:	48 01 ea             	add    %rbp,%rdx
    2bf3:	49 83 c7 18          	add    $0x18,%r15
    2bf7:	48 89 44 24 18       	mov    %rax,0x18(%rsp)
    2bfc:	e9 14 fc ff ff       	jmp    2815 <__stubAPPTERM3+0x43f>
    2c01:	ba 18 05 00 00       	mov    $0x518,%edx
    2c06:	48 8d 35 00 00 00 00 	lea    0x0(%rip),%rsi        # 2c0d <__stubAPPTERM3+0x837>
    2c0d:	48 8d 3d 00 00 00 00 	lea    0x0(%rip),%rdi        # 2c14 <__stubAPPTERM3+0x83e>
    2c14:	e8 00 00 00 00       	call   2c19 <__stubAPPTERM3+0x843>
    2c19:	0f 1f 80 00 00 00 00 	nopl   0x0(%rax)
    2c20:	48 8b 44 24 18       	mov    0x18(%rsp),%rax
    2c25:	4c 01 63 08          	add    %r12,0x8(%rbx)
    2c29:	49 83 ef 18          	sub    $0x18,%r15
    2c2d:	49 89 37             	mov    %rsi,(%r15)
    2c30:	49 89 47 08          	mov    %rax,0x8(%r15)
    2c34:	48 8b 84 24 a0 00 00 	mov    0xa0(%rsp),%rax
    2c3b:	00 
    2c3c:	49 89 47 10          	mov    %rax,0x10(%r15)
    2c40:	48 8b 44 24 08       	mov    0x8(%rsp),%rax
    2c45:	48 8b 40 20          	mov    0x20(%rax),%rax
    2c49:	4c 89 38             	mov    %r15,(%rax)
    2c4c:	e8 00 00 00 00       	call   2c51 <__stubAPPTERM3+0x87b>
    2c51:	48 8b 44 24 08       	mov    0x8(%rsp),%rax
    2c56:	48 8b 40 20          	mov    0x20(%rax),%rax
    2c5a:	4c 8b 38             	mov    (%rax),%r15
    2c5d:	49 8b 47 08          	mov    0x8(%r15),%rax
    2c61:	49 8b 37             	mov    (%r15),%rsi
    2c64:	49 83 c7 18          	add    $0x18,%r15
    2c68:	48 89 44 24 18       	mov    %rax,0x18(%rsp)
    2c6d:	48 8b 84 24 b0 00 00 	mov    0xb0(%rsp),%rax
    2c74:	00 
    2c75:	48 03 43 08          	add    0x8(%rbx),%rax
    2c79:	e9 86 f4 ff ff       	jmp    2104 <__stubCLOSURE+0x69>
    2c7e:	48 8b 84 24 d0 00 00 	mov    0xd0(%rsp),%rax
    2c85:	00 
    2c86:	48 01 43 08          	add    %rax,0x8(%rbx)
    2c8a:	48 83 e9 18          	sub    $0x18,%rcx
    2c8e:	48 8b 44 24 18       	mov    0x18(%rsp),%rax
    2c93:	48 89 39             	mov    %rdi,(%rcx)
    2c96:	48 89 69 10          	mov    %rbp,0x10(%rcx)
    2c9a:	48 89 41 08          	mov    %rax,0x8(%rcx)
    2c9e:	48 8b 44 24 08       	mov    0x8(%rsp),%rax
    2ca3:	48 8b 40 20          	mov    0x20(%rax),%rax
    2ca7:	48 89 08             	mov    %rcx,(%rax)
    2caa:	e8 00 00 00 00       	call   2caf <__stubAPPTERM3+0x8d9>
    2caf:	48 8b 44 24 08       	mov    0x8(%rsp),%rax
    2cb4:	48 8b 40 20          	mov    0x20(%rax),%rax
    2cb8:	48 8b 08             	mov    (%rax),%rcx
    2cbb:	48 8b 41 08          	mov    0x8(%rcx),%rax
    2cbf:	48 8b 39             	mov    (%rcx),%rdi
    2cc2:	48 83 c1 18          	add    $0x18,%rcx
    2cc6:	48 89 44 24 18       	mov    %rax,0x18(%rsp)
    2ccb:	48 8b 84 24 c8 00 00 	mov    0xc8(%rsp),%rax
    2cd2:	00 
    2cd3:	48 03 43 08          	add    0x8(%rbx),%rax
    2cd7:	e9 66 f0 ff ff       	jmp    1d42 <__stubCLOSUREREC+0x9e>
    2cdc:	48 8b 0d 00 00 00 00 	mov    0x0(%rip),%rcx        # 2ce3 <__stubAPPTERM3+0x90d>
    2ce3:	ba 22 00 00 00       	mov    $0x22,%edx
    2ce8:	be 01 00 00 00       	mov    $0x1,%esi
    2ced:	48 8d 3d 00 00 00 00 	lea    0x0(%rip),%rdi        # 2cf4 <__stubAPPTERM3+0x91e>
    2cf4:	e8 00 00 00 00       	call   2cf9 <__stubAPPTERM3+0x923>
    2cf9:	bf 01 00 00 00       	mov    $0x1,%edi
    2cfe:	e8 00 00 00 00       	call   2d03 <__stubAPPTERM3+0x92d>
    2d03:	48 8b 0d 00 00 00 00 	mov    0x0(%rip),%rcx        # 2d0a <__stubAPPTERM3+0x934>
    2d0a:	ba 28 00 00 00       	mov    $0x28,%edx
    2d0f:	be 01 00 00 00       	mov    $0x1,%esi
    2d14:	48 8d 3d 00 00 00 00 	lea    0x0(%rip),%rdi        # 2d1b <__stubAPPTERM3+0x945>
    2d1b:	e8 00 00 00 00       	call   2d20 <__stubAPPTERM3+0x94a>
    2d20:	ba 24 00 00 00       	mov    $0x24,%edx
    2d25:	48 8b 0d 00 00 00 00 	mov    0x0(%rip),%rcx        # 2d2c <__stubAPPTERM3+0x956>
    2d2c:	be 01 00 00 00       	mov    $0x1,%esi
    2d31:	48 8d 3d 00 00 00 00 	lea    0x0(%rip),%rdi        # 2d38 <__stubAPPTERM3+0x962>
    2d38:	e8 00 00 00 00       	call   2d3d <__stubAPPTERM3+0x967>
    2d3d:	eb ba                	jmp    2cf9 <__stubAPPTERM3+0x923>
    2d3f:	48 8b 7c 24 50       	mov    0x50(%rsp),%rdi
    2d44:	41 bd 01 00 00 00    	mov    $0x1,%r13d
    2d4a:	e8 00 00 00 00       	call   2d4f <__stubAPPTERM3+0x979>
    2d4f:	4c 8b 7c 24 38       	mov    0x38(%rsp),%r15
    2d54:	48 c7 44 24 50 00 00 	movq   $0x0,0x50(%rsp)
    2d5b:	00 00 
    2d5d:	48 c7 44 24 10 00 00 	movq   $0x0,0x10(%rsp)
    2d64:	00 00 
    2d66:	e9 3c d5 ff ff       	jmp    2a7 <__stubCHECK_SIGNALS+0x10e>
    2d6b:	0f 1f 44 00 00       	nopl   0x0(%rax,%rax,1)
    2d70:	49 63 36             	movslq (%r14),%rsi
    2d73:	48 8d 3d 00 00 00 00 	lea    0x0(%rip),%rdi        # 2d7a <__stubAPPTERM3+0x9a4>
    2d7a:	31 c0                	xor    %eax,%eax
    2d7c:	e8 00 00 00 00       	call   2d81 <__stubAPPTERM3+0x9ab>
    2d81:	ba 75 03 00 00       	mov    $0x375,%edx
    2d86:	48 8d 35 00 00 00 00 	lea    0x0(%rip),%rsi        # 2d8d <__stubAPPTERM3+0x9b7>
    2d8d:	48 8d 3d 00 00 00 00 	lea    0x0(%rip),%rdi        # 2d94 <__stubAPPTERM3+0x9be>
    2d94:	e8 00 00 00 00       	call   2d99 <__stubAPPTERM3+0x9c3>
    2d99:	ba 76 03 00 00       	mov    $0x376,%edx
    2d9e:	48 8d 35 00 00 00 00 	lea    0x0(%rip),%rsi        # 2da5 <__stubAPPTERM3+0x9cf>
    2da5:	48 8d 3d 00 00 00 00 	lea    0x0(%rip),%rdi        # 2dac <__stubAPPTERM3+0x9d6>
    2dac:	e8 00 00 00 00       	call   2db1 <__stubAPPTERM3+0x9db>
    2db1:	48 8b 0d 00 00 00 00 	mov    0x0(%rip),%rcx        # 2db8 <__stubAPPTERM3+0x9e2>
    2db8:	ba 29 00 00 00       	mov    $0x29,%edx
    2dbd:	be 01 00 00 00       	mov    $0x1,%esi
    2dc2:	48 8d 3d 00 00 00 00 	lea    0x0(%rip),%rdi        # 2dc9 <__stubAPPTERM3+0x9f3>
    2dc9:	e8 00 00 00 00       	call   2dce <__stubAPPTERM3+0x9f8>
    2dce:	e9 26 ff ff ff       	jmp    2cf9 <__stubAPPTERM3+0x923>
    2dd3:	48 8d 0d 00 00 00 00 	lea    0x0(%rip),%rcx        # 2dda <__stubAPPTERM3+0xa04>
    2dda:	ba 64 02 00 00       	mov    $0x264,%edx
    2ddf:	48 8d 35 00 00 00 00 	lea    0x0(%rip),%rsi        # 2de6 <__stubAPPTERM3+0xa10>
    2de6:	48 8d 3d 00 00 00 00 	lea    0x0(%rip),%rdi        # 2ded <__stubAPPTERM3+0xa17>
    2ded:	e8 00 00 00 00       	call   2df2 <__stubAPPTERM3+0xa1c>
    2df2:	48 8b 44 24 18       	mov    0x18(%rsp),%rax
    2df7:	4d 87 f7             	xchg   %r14,%r15
    2dfa:	4d 8d 4f 08          	lea    0x8(%r15),%r9
    2dfe:	49 8d 56 f8          	lea    -0x8(%r14),%rdx
    2e02:	49 89 46 f8          	mov    %rax,-0x8(%r14)
    2e06:	48 8b 44 24 08       	mov    0x8(%rsp),%rax
    2e0b:	4d 89 0e             	mov    %r9,(%r14)
    2e0e:	48 8b 40 20          	mov    0x20(%rax),%rax
    2e12:	48 89 10             	mov    %rdx,(%rax)
    2e15:	e8 00 00 00 00       	call   2e1a <__stubAPPTERM3+0xa44>
    2e1a:	ba fd 07 00 00       	mov    $0x7fd,%edx
    2e1f:	48 8d 35 00 00 00 00 	lea    0x0(%rip),%rsi        # 2e26 <__stubAPPTERM3+0xa50>
    2e26:	48 8d 3d 00 00 00 00 	lea    0x0(%rip),%rdi        # 2e2d <__stubAPPTERM3+0xa57>
    2e2d:	e8 00 00 00 00       	call   2e32 <__stubAPPTERM3+0xa5c>
    2e32:	ba fd 07 00 00       	mov    $0x7fd,%edx
    2e37:	48 8d 35 00 00 00 00 	lea    0x0(%rip),%rsi        # 2e3e <__stubAPPTERM3+0xa68>
    2e3e:	48 8d 3d 00 00 00 00 	lea    0x0(%rip),%rdi        # 2e45 <__stubAPPTERM3+0xa6f>
    2e45:	e8 00 00 00 00       	call   2e4a <__stubAPPTERM3+0xa74>
    2e4a:	ba fd 07 00 00       	mov    $0x7fd,%edx
    2e4f:	48 8d 35 00 00 00 00 	lea    0x0(%rip),%rsi        # 2e56 <__stubAPPTERM3+0xa80>
    2e56:	48 8d 3d 00 00 00 00 	lea    0x0(%rip),%rdi        # 2e5d <__stubAPPTERM3+0xa87>
    2e5d:	e8 00 00 00 00       	call   2e62 <__stubAPPTERM3+0xa8c>
    2e62:	ba a6 05 00 00       	mov    $0x5a6,%edx
    2e67:	48 8d 35 00 00 00 00 	lea    0x0(%rip),%rsi        # 2e6e <__stubAPPTERM3+0xa98>
    2e6e:	48 8d 3d 00 00 00 00 	lea    0x0(%rip),%rdi        # 2e75 <__stubAPPTERM3+0xa9f>
    2e75:	e8 00 00 00 00       	call   2e7a <__stubAPPTERM3+0xaa4>
    2e7a:	ba b2 05 00 00       	mov    $0x5b2,%edx
    2e7f:	48 8d 35 00 00 00 00 	lea    0x0(%rip),%rsi        # 2e86 <__stubAPPTERM3+0xab0>
    2e86:	48 8d 3d 00 00 00 00 	lea    0x0(%rip),%rdi        # 2e8d <__stubAPPTERM3+0xab7>
    2e8d:	e8 00 00 00 00       	call   2e92 <__stubAPPTERM3+0xabc>
    2e92:	ba 43 06 00 00       	mov    $0x643,%edx
    2e97:	48 8d 35 00 00 00 00 	lea    0x0(%rip),%rsi        # 2e9e <__stubAPPTERM3+0xac8>
    2e9e:	48 8d 3d 00 00 00 00 	lea    0x0(%rip),%rdi        # 2ea5 <__stubAPPTERM3+0xacf>
    2ea5:	e8 00 00 00 00       	call   2eaa <__stubAPPTERM3+0xad4>
    2eaa:	ba 47 06 00 00       	mov    $0x647,%edx
    2eaf:	48 8d 35 00 00 00 00 	lea    0x0(%rip),%rsi        # 2eb6 <__stubAPPTERM3+0xae0>
    2eb6:	48 8d 3d 00 00 00 00 	lea    0x0(%rip),%rdi        # 2ebd <__stubAPPTERM3+0xae7>
    2ebd:	e8 00 00 00 00       	call   2ec2 <__stubAPPTERM3+0xaec>
    2ec2:	49 8b 47 18          	mov    0x18(%r15),%rax
    2ec6:	48 85 c0             	test   %rax,%rax
    2ec9:	0f 85 73 d2 ff ff    	jne    142 <caml_interprete+0x142>
    2ecf:	ba b8 04 00 00       	mov    $0x4b8,%edx
    2ed4:	48 8d 35 00 00 00 00 	lea    0x0(%rip),%rsi        # 2edb <__stubAPPTERM3+0xb05>
    2edb:	48 8d 3d 00 00 00 00 	lea    0x0(%rip),%rdi        # 2ee2 <__stubAPPTERM3+0xb0c>
    2ee2:	e8 00 00 00 00       	call   2ee7 <__stubAPPTERM3+0xb11>
    2ee7:	ba 05 01 00 00       	mov    $0x105,%edx
    2eec:	48 8d 35 00 00 00 00 	lea    0x0(%rip),%rsi        # 2ef3 <__stubAPPTERM3+0xb1d>
    2ef3:	48 8d 3d 00 00 00 00 	lea    0x0(%rip),%rdi        # 2efa <__stubAPPTERM3+0xb24>
    2efa:	e8 00 00 00 00       	call   2eff <__stubAPPTERM3+0xb29>
    2eff:	ba 00 01 00 00       	mov    $0x100,%edx
    2f04:	48 8d 35 00 00 00 00 	lea    0x0(%rip),%rsi        # 2f0b <__stubAPPTERM3+0xb35>
    2f0b:	48 8d 3d 00 00 00 00 	lea    0x0(%rip),%rdi        # 2f12 <__stubAPPTERM3+0xb3c>
    2f12:	e8 00 00 00 00       	call   2f17 <__stubAPPTERM3+0xb41>
    2f17:	ba 7a 08 00 00       	mov    $0x87a,%edx
    2f1c:	48 8d 35 00 00 00 00 	lea    0x0(%rip),%rsi        # 2f23 <__stubAPPTERM3+0xb4d>
    2f23:	48 8d 3d 00 00 00 00 	lea    0x0(%rip),%rdi        # 2f2a <__stubAPPTERM3+0xb54>
    2f2a:	e8 00 00 00 00       	call   2f2f <__stubAPPTERM3+0xb59>
    2f2f:	ba 9c 05 00 00       	mov    $0x59c,%edx
    2f34:	48 8d 35 00 00 00 00 	lea    0x0(%rip),%rsi        # 2f3b <__stubAPPTERM3+0xb65>
    2f3b:	48 8d 3d 00 00 00 00 	lea    0x0(%rip),%rdi        # 2f42 <__stubAPPTERM3+0xb6c>
    2f42:	e8 00 00 00 00       	call   2f47 <__stubAPPTERM3+0xb71>
    2f47:	66 0f 1f 84 00 00 00 	nopw   0x0(%rax,%rax,1)
    2f4e:	00 00 
    2f50:	48 8b 84 24 e0 00 00 	mov    0xe0(%rsp),%rax
    2f57:	00 
    2f58:	48 01 43 08          	add    %rax,0x8(%rbx)
    2f5c:	49 83 ef 18          	sub    $0x18,%r15
    2f60:	48 8b 44 24 18       	mov    0x18(%rsp),%rax
    2f65:	4d 89 2f             	mov    %r13,(%r15)
    2f68:	4c 8b 6c 24 08       	mov    0x8(%rsp),%r13
    2f6d:	49 89 47 08          	mov    %rax,0x8(%r15)
    2f71:	48 8b 84 24 98 00 00 	mov    0x98(%rsp),%rax
    2f78:	00 
    2f79:	49 89 47 10          	mov    %rax,0x10(%r15)
    2f7d:	49 8b 45 20          	mov    0x20(%r13),%rax
    2f81:	4c 89 38             	mov    %r15,(%rax)
    2f84:	e8 00 00 00 00       	call   2f89 <__stubAPPTERM3+0xbb3>
    2f89:	49 8b 45 20          	mov    0x20(%r13),%rax
    2f8d:	4c 8b 38             	mov    (%rax),%r15
    2f90:	49 8b 47 08          	mov    0x8(%r15),%rax
    2f94:	4d 8b 2f             	mov    (%r15),%r13
    2f97:	49 83 c7 18          	add    $0x18,%r15
    2f9b:	48 89 44 24 18       	mov    %rax,0x18(%rsp)
    2fa0:	48 8b 43 08          	mov    0x8(%rbx),%rax
    2fa4:	48 01 e8             	add    %rbp,%rax
    2fa7:	e9 20 ea ff ff       	jmp    19cc <__stubMAKEFLOATBLOCK+0x60>
    2fac:	ba f8 04 00 00       	mov    $0x4f8,%edx
    2fb1:	48 8d 35 00 00 00 00 	lea    0x0(%rip),%rsi        # 2fb8 <__stubAPPTERM3+0xbe2>
    2fb8:	48 8d 3d 00 00 00 00 	lea    0x0(%rip),%rdi        # 2fbf <__stubAPPTERM3+0xbe9>
    2fbf:	e8 00 00 00 00       	call   2fc4 <__stubAPPTERM3+0xbee>
    2fc4:	ba c1 05 00 00       	mov    $0x5c1,%edx
    2fc9:	48 8d 35 00 00 00 00 	lea    0x0(%rip),%rsi        # 2fd0 <__stubAPPTERM3+0xbfa>
    2fd0:	48 8d 3d 00 00 00 00 	lea    0x0(%rip),%rdi        # 2fd7 <__stubAPPTERM3+0xc01>
    2fd7:	e8 00 00 00 00       	call   2fdc <__stubAPPTERM3+0xc06>
    2fdc:	48 8b 44 24 08       	mov    0x8(%rsp),%rax
    2fe1:	4d 8d 4f 04          	lea    0x4(%r15),%r9
    2fe5:	4d 89 6e f0          	mov    %r13,-0x10(%r14)
    2fe9:	49 8d 56 f0          	lea    -0x10(%r14),%rdx
    2fed:	4d 89 4e f8          	mov    %r9,-0x8(%r14)
    2ff1:	48 8b 40 20          	mov    0x20(%rax),%rax
    2ff5:	48 89 10             	mov    %rdx,(%rax)
    2ff8:	e8 00 00 00 00       	call   2ffd <__stubAPPTERM3+0xc27>
    2ffd:	e8 00 00 00 00       	call   3002 <__stubAPPTERM3+0xc2c>
    3002:	ba e6 04 00 00       	mov    $0x4e6,%edx
    3007:	48 8d 35 00 00 00 00 	lea    0x0(%rip),%rsi        # 300e <__stubAPPTERM3+0xc38>
    300e:	48 8d 3d 00 00 00 00 	lea    0x0(%rip),%rdi        # 3015 <__stubAPPTERM3+0xc3f>
    3015:	e8 00 00 00 00       	call   301a <__stubAPPTERM3+0xc44>
    301a:	ba e6 04 00 00       	mov    $0x4e6,%edx
    301f:	48 8d 35 00 00 00 00 	lea    0x0(%rip),%rsi        # 3026 <__stubAPPTERM3+0xc50>
    3026:	48 8d 3d 00 00 00 00 	lea    0x0(%rip),%rdi        # 302d <__stubAPPTERM3+0xc57>
    302d:	e8 00 00 00 00       	call   3032 <__stubAPPTERM3+0xc5c>
    3032:	66 0f 1f 44 00 00    	nopw   0x0(%rax,%rax,1)
    3038:	4c 8b b4 24 80 00 00 	mov    0x80(%rsp),%r14
    303f:	00 
    3040:	e9 83 d2 ff ff       	jmp    2c8 <__stubCHECK_SIGNALS+0x12f>
    3045:	ba 8c 05 00 00       	mov    $0x58c,%edx
    304a:	48 8d 35 00 00 00 00 	lea    0x0(%rip),%rsi        # 3051 <__stubAPPTERM3+0xc7b>
    3051:	48 8d 3d 00 00 00 00 	lea    0x0(%rip),%rdi        # 3058 <__stubAPPTERM3+0xc82>
    3058:	e8 00 00 00 00       	call   305d <__stubAPPTERM3+0xc87>
    305d:	0f 1f 00             	nopl   (%rax)
    3060:	48 8b 84 24 d8 00 00 	mov    0xd8(%rsp),%rax
    3067:	00 
    3068:	48 01 43 08          	add    %rax,0x8(%rbx)
    306c:	49 8d 55 e8          	lea    -0x18(%r13),%rdx
    3070:	48 8b 44 24 18       	mov    0x18(%rsp),%rax
    3075:	49 89 7d e8          	mov    %rdi,-0x18(%r13)
    3079:	49 89 45 f0          	mov    %rax,-0x10(%r13)
    307d:	48 8b 84 24 80 00 00 	mov    0x80(%rsp),%rax
    3084:	00 
    3085:	49 89 45 f8          	mov    %rax,-0x8(%r13)
    3089:	48 8b 44 24 08       	mov    0x8(%rsp),%rax
    308e:	48 8b 40 20          	mov    0x20(%rax),%rax
    3092:	48 89 10             	mov    %rdx,(%rax)
    3095:	e8 00 00 00 00       	call   309a <__stubAPPTERM3+0xcc4>
    309a:	48 8b 44 24 08       	mov    0x8(%rsp),%rax
    309f:	48 8b 40 20          	mov    0x20(%rax),%rax
    30a3:	48 8b 10             	mov    (%rax),%rdx
    30a6:	48 8b 42 08          	mov    0x8(%rdx),%rax
    30aa:	48 8b 3a             	mov    (%rdx),%rdi
    30ad:	4c 8d 6a 18          	lea    0x18(%rdx),%r13
    30b1:	48 89 44 24 18       	mov    %rax,0x18(%rsp)
    30b6:	48 8b 43 08          	mov    0x8(%rbx),%rax
    30ba:	4c 01 e0             	add    %r12,%rax
    30bd:	e9 6a f1 ff ff       	jmp    222c <__stubMAKEBLOCK+0x79>
    30c2:	ba 8c 05 00 00       	mov    $0x58c,%edx
    30c7:	48 8d 35 00 00 00 00 	lea    0x0(%rip),%rsi        # 30ce <__stubAPPTERM3+0xcf8>
    30ce:	48 8d 3d 00 00 00 00 	lea    0x0(%rip),%rdi        # 30d5 <__stubAPPTERM3+0xcff>
    30d5:	e8 00 00 00 00       	call   30da <__stubAPPTERM3+0xd04>
