
interp.bd.o:     file format elf64-x86-64


Disassembly of section .text.func_stack_push:

0000000000000000 <func_stack_push>:
   0:	48 8b 47 20          	mov    0x20(%rdi),%rax
   4:	48 39 47 10          	cmp    %rax,0x10(%rdi)
   8:	74 1c                	je     26 <func_stack_push+0x26>
   a:	48 8b 17             	mov    (%rdi),%rdx
   d:	48 8d 48 01          	lea    0x1(%rax),%rcx
  11:	48 89 4f 20          	mov    %rcx,0x20(%rdi)
  15:	48 89 34 c2          	mov    %rsi,(%rdx,%rax,8)
  19:	31 c0                	xor    %eax,%eax
  1b:	48 83 47 08 01       	addq   $0x1,0x8(%rdi)
  20:	48 83 47 18 08       	addq   $0x8,0x18(%rdi)
  25:	c3                   	retq   
  26:	48 83 ec 08          	sub    $0x8,%rsp
  2a:	48 8b 3d 00 00 00 00 	mov    0x0(%rip),%rdi        # 31 <func_stack_push+0x31>
  31:	be 01 00 00 00       	mov    $0x1,%esi
  36:	31 c0                	xor    %eax,%eax
  38:	48 8d 0d 00 00 00 00 	lea    0x0(%rip),%rcx        # 3f <func_stack_push+0x3f>
  3f:	48 8d 15 00 00 00 00 	lea    0x0(%rip),%rdx        # 46 <func_stack_push+0x46>
  46:	e8 00 00 00 00       	callq  4b <func_stack_push+0x4b>
  4b:	b8 ff ff ff ff       	mov    $0xffffffff,%eax
  50:	48 83 c4 08          	add    $0x8,%rsp
  54:	c3                   	retq   

Disassembly of section .text.func_stack_pop:

0000000000000000 <func_stack_pop>:
   0:	48 8b 47 08          	mov    0x8(%rdi),%rax
   4:	48 85 c0             	test   %rax,%rax
   7:	74 27                	je     30 <func_stack_pop+0x30>
   9:	48 83 e8 01          	sub    $0x1,%rax
   d:	48 8b 17             	mov    (%rdi),%rdx
  10:	48 83 6f 18 08       	subq   $0x8,0x18(%rdi)
  15:	48 89 47 08          	mov    %rax,0x8(%rdi)
  19:	48 8b 47 20          	mov    0x20(%rdi),%rax
  1d:	48 83 e8 01          	sub    $0x1,%rax
  21:	48 89 47 20          	mov    %rax,0x20(%rdi)
  25:	48 8b 04 c2          	mov    (%rdx,%rax,8),%rax
  29:	c3                   	retq   
  2a:	66 0f 1f 44 00 00    	nopw   0x0(%rax,%rax,1)
  30:	48 83 ec 08          	sub    $0x8,%rsp
  34:	48 8b 0d 00 00 00 00 	mov    0x0(%rip),%rcx        # 3b <func_stack_pop+0x3b>
  3b:	ba 1b 00 00 00       	mov    $0x1b,%edx
  40:	be 01 00 00 00       	mov    $0x1,%esi
  45:	48 8d 3d 00 00 00 00 	lea    0x0(%rip),%rdi        # 4c <func_stack_pop+0x4c>
  4c:	e8 00 00 00 00       	callq  51 <func_stack_pop+0x51>
  51:	31 c0                	xor    %eax,%eax
  53:	48 83 c4 08          	add    $0x8,%rsp
  57:	c3                   	retq   

Disassembly of section .text.ht_set_entry:

0000000000000000 <ht_set_entry>:
   0:	48 89 d0             	mov    %rdx,%rax
   3:	48 85 d2             	test   %rdx,%rdx
   6:	0f 84 89 00 00 00    	je     95 <ht_set_entry+0x95>
   c:	49 89 c2             	mov    %rax,%r10
   f:	49 89 d1             	mov    %rdx,%r9
  12:	48 c1 e2 36          	shl    $0x36,%rdx
  16:	49 c1 e2 3d          	shl    $0x3d,%r10
  1a:	49 c1 e1 39          	shl    $0x39,%r9
  1e:	4c 01 d2             	add    %r10,%rdx
  21:	49 89 c2             	mov    %rax,%r10
  24:	49 c1 e2 3f          	shl    $0x3f,%r10
  28:	48 01 c2             	add    %rax,%rdx
  2b:	4c 01 d2             	add    %r10,%rdx
  2e:	49 89 c2             	mov    %rax,%r10
  31:	49 c1 e2 12          	shl    $0x12,%r10
  35:	4c 29 d2             	sub    %r10,%rdx
  38:	49 89 c2             	mov    %rax,%r10
  3b:	49 c1 e2 33          	shl    $0x33,%r10
  3f:	4c 29 d2             	sub    %r10,%rdx
  42:	4c 8d 56 ff          	lea    -0x1(%rsi),%r10
  46:	4c 29 ca             	sub    %r9,%rdx
  49:	49 21 d2             	and    %rdx,%r10
  4c:	4d 89 d1             	mov    %r10,%r9
  4f:	49 c1 e1 04          	shl    $0x4,%r9
  53:	49 01 f9             	add    %rdi,%r9
  56:	eb 1a                	jmp    72 <ht_set_entry+0x72>
  58:	0f 1f 84 00 00 00 00 	nopl   0x0(%rax,%rax,1)
  5f:	00 
  60:	49 39 c3             	cmp    %rax,%r11
  63:	74 21                	je     86 <ht_set_entry+0x86>
  65:	49 83 c2 01          	add    $0x1,%r10
  69:	49 83 c1 10          	add    $0x10,%r9
  6d:	4c 39 d6             	cmp    %r10,%rsi
  70:	76 1e                	jbe    90 <ht_set_entry+0x90>
  72:	4d 8b 19             	mov    (%r9),%r11
  75:	4d 85 db             	test   %r11,%r11
  78:	75 e6                	jne    60 <ht_set_entry+0x60>
  7a:	4d 85 c0             	test   %r8,%r8
  7d:	74 04                	je     83 <ht_set_entry+0x83>
  7f:	49 83 00 01          	addq   $0x1,(%r8)
  83:	49 89 01             	mov    %rax,(%r9)
  86:	49 89 49 08          	mov    %rcx,0x8(%r9)
  8a:	c3                   	retq   
  8b:	0f 1f 44 00 00       	nopl   0x0(%rax,%rax,1)
  90:	45 31 d2             	xor    %r10d,%r10d
  93:	eb b7                	jmp    4c <ht_set_entry+0x4c>
  95:	52                   	push   %rdx
  96:	48 8b 3d 00 00 00 00 	mov    0x0(%rip),%rdi        # 9d <ht_set_entry+0x9d>
  9d:	48 8d 0d 00 00 00 00 	lea    0x0(%rip),%rcx        # a4 <ht_set_entry+0xa4>
  a4:	48 8d 15 00 00 00 00 	lea    0x0(%rip),%rdx        # ab <ht_set_entry+0xab>
  ab:	be 01 00 00 00       	mov    $0x1,%esi
  b0:	e8 00 00 00 00       	callq  b5 <ht_set_entry+0xb5>
  b5:	bf 01 00 00 00       	mov    $0x1,%edi
  ba:	e8 00 00 00 00       	callq  bf <.LC29+0x8>

Disassembly of section .text.ht_create:

0000000000000000 <ht_create>:
   0:	f3 0f 1e fa          	endbr64 
   4:	41 54                	push   %r12
   6:	bf 18 00 00 00       	mov    $0x18,%edi
   b:	e8 00 00 00 00       	callq  10 <ht_create+0x10>
  10:	49 89 c4             	mov    %rax,%r12
  13:	48 85 c0             	test   %rax,%rax
  16:	74 28                	je     40 <ht_create+0x40>
  18:	48 c7 40 10 00 00 00 	movq   $0x0,0x10(%rax)
  1f:	00 
  20:	be 10 00 00 00       	mov    $0x10,%esi
  25:	bf 10 00 00 00       	mov    $0x10,%edi
  2a:	48 c7 40 08 10 00 00 	movq   $0x10,0x8(%rax)
  31:	00 
  32:	e8 00 00 00 00       	callq  37 <ht_create+0x37>
  37:	49 89 04 24          	mov    %rax,(%r12)
  3b:	48 85 c0             	test   %rax,%rax
  3e:	74 06                	je     46 <ht_create+0x46>
  40:	4c 89 e0             	mov    %r12,%rax
  43:	41 5c                	pop    %r12
  45:	c3                   	retq   
  46:	4c 89 e7             	mov    %r12,%rdi
  49:	45 31 e4             	xor    %r12d,%r12d
  4c:	e8 00 00 00 00       	callq  51 <ht_create+0x51>
  51:	eb ed                	jmp    40 <ht_create+0x40>

Disassembly of section .text.ht_destroy:

0000000000000000 <ht_destroy>:
   0:	f3 0f 1e fa          	endbr64 
   4:	55                   	push   %rbp
   5:	48 89 fd             	mov    %rdi,%rbp
   8:	48 8b 3f             	mov    (%rdi),%rdi
   b:	e8 00 00 00 00       	callq  10 <ht_destroy+0x10>
  10:	48 89 ef             	mov    %rbp,%rdi
  13:	5d                   	pop    %rbp
  14:	e9 00 00 00 00       	jmpq   19 <ht_destroy+0x19>

Disassembly of section .text.ht_get:

0000000000000000 <ht_get>:
   0:	f3 0f 1e fa          	endbr64 
   4:	48 89 f0             	mov    %rsi,%rax
   7:	48 89 f2             	mov    %rsi,%rdx
   a:	48 8b 4f 08          	mov    0x8(%rdi),%rcx
   e:	49 89 f0             	mov    %rsi,%r8
  11:	48 c1 e2 3d          	shl    $0x3d,%rdx
  15:	48 c1 e0 36          	shl    $0x36,%rax
  19:	48 8b 3f             	mov    (%rdi),%rdi
  1c:	48 01 d0             	add    %rdx,%rax
  1f:	48 89 f2             	mov    %rsi,%rdx
  22:	49 c1 e0 39          	shl    $0x39,%r8
  26:	48 c1 e2 3f          	shl    $0x3f,%rdx
  2a:	48 01 f0             	add    %rsi,%rax
  2d:	48 01 d0             	add    %rdx,%rax
  30:	48 89 f2             	mov    %rsi,%rdx
  33:	48 c1 e2 12          	shl    $0x12,%rdx
  37:	48 29 d0             	sub    %rdx,%rax
  3a:	48 89 f2             	mov    %rsi,%rdx
  3d:	48 c1 e2 33          	shl    $0x33,%rdx
  41:	48 29 d0             	sub    %rdx,%rax
  44:	48 8d 51 ff          	lea    -0x1(%rcx),%rdx
  48:	4c 29 c0             	sub    %r8,%rax
  4b:	48 21 c2             	and    %rax,%rdx
  4e:	48 89 d0             	mov    %rdx,%rax
  51:	48 c1 e0 04          	shl    $0x4,%rax
  55:	48 01 f8             	add    %rdi,%rax
  58:	eb 18                	jmp    72 <ht_get+0x72>
  5a:	66 0f 1f 44 00 00    	nopw   0x0(%rax,%rax,1)
  60:	49 39 f0             	cmp    %rsi,%r8
  63:	74 1b                	je     80 <ht_get+0x80>
  65:	48 83 c2 01          	add    $0x1,%rdx
  69:	48 83 c0 10          	add    $0x10,%rax
  6d:	48 39 d1             	cmp    %rdx,%rcx
  70:	76 1e                	jbe    90 <ht_get+0x90>
  72:	4c 8b 00             	mov    (%rax),%r8
  75:	4d 85 c0             	test   %r8,%r8
  78:	75 e6                	jne    60 <ht_get+0x60>
  7a:	4c 89 c0             	mov    %r8,%rax
  7d:	c3                   	retq   
  7e:	66 90                	xchg   %ax,%ax
  80:	4c 8b 40 08          	mov    0x8(%rax),%r8
  84:	4c 89 c0             	mov    %r8,%rax
  87:	c3                   	retq   
  88:	0f 1f 84 00 00 00 00 	nopl   0x0(%rax,%rax,1)
  8f:	00 
  90:	31 d2                	xor    %edx,%edx
  92:	eb ba                	jmp    4e <ht_get+0x4e>

Disassembly of section .text.ht_set:

0000000000000000 <ht_set>:
   0:	f3 0f 1e fa          	endbr64 
   4:	41 57                	push   %r15
   6:	41 56                	push   %r14
   8:	41 55                	push   %r13
   a:	41 54                	push   %r12
   c:	55                   	push   %rbp
   d:	53                   	push   %rbx
   e:	48 83 ec 18          	sub    $0x18,%rsp
  12:	48 85 d2             	test   %rdx,%rdx
  15:	0f 84 48 01 00 00    	je     163 <ht_set+0x163>
  1b:	49 89 f5             	mov    %rsi,%r13
  1e:	48 85 f6             	test   %rsi,%rsi
  21:	0f 84 5b 01 00 00    	je     182 <ht_set+0x182>
  27:	48 8b 6f 08          	mov    0x8(%rdi),%rbp
  2b:	48 89 fb             	mov    %rdi,%rbx
  2e:	49 89 d4             	mov    %rdx,%r12
  31:	48 89 e8             	mov    %rbp,%rax
  34:	48 d1 e8             	shr    %rax
  37:	48 39 47 10          	cmp    %rax,0x10(%rdi)
  3b:	0f 82 9f 00 00 00    	jb     e0 <ht_set+0xe0>
  41:	4c 8d 4c 2d 00       	lea    0x0(%rbp,%rbp,1),%r9
  46:	4c 39 cd             	cmp    %r9,%rbp
  49:	0f 87 c1 00 00 00    	ja     110 <ht_set+0x110>
  4f:	be 10 00 00 00       	mov    $0x10,%esi
  54:	4c 89 cf             	mov    %r9,%rdi
  57:	4c 89 4c 24 08       	mov    %r9,0x8(%rsp)
  5c:	e8 00 00 00 00       	callq  61 <ht_set+0x61>
  61:	49 89 c7             	mov    %rax,%r15
  64:	48 85 c0             	test   %rax,%rax
  67:	0f 84 40 01 00 00    	je     1ad <ht_set+0x1ad>
  6d:	45 31 f6             	xor    %r14d,%r14d
  70:	48 85 ed             	test   %rbp,%rbp
  73:	48 8b 3b             	mov    (%rbx),%rdi
  76:	4c 8b 4c 24 08       	mov    0x8(%rsp),%r9
  7b:	74 3e                	je     bb <ht_set+0xbb>
  7d:	0f 1f 00             	nopl   (%rax)
  80:	4c 89 f0             	mov    %r14,%rax
  83:	48 c1 e0 04          	shl    $0x4,%rax
  87:	48 01 f8             	add    %rdi,%rax
  8a:	48 8b 10             	mov    (%rax),%rdx
  8d:	48 85 d2             	test   %rdx,%rdx
  90:	74 1f                	je     b1 <ht_set+0xb1>
  92:	48 8b 48 08          	mov    0x8(%rax),%rcx
  96:	4c 89 ce             	mov    %r9,%rsi
  99:	4c 89 ff             	mov    %r15,%rdi
  9c:	45 31 c0             	xor    %r8d,%r8d
  9f:	4c 89 4c 24 08       	mov    %r9,0x8(%rsp)
  a4:	e8 00 00 00 00       	callq  a9 <ht_set+0xa9>
  a9:	48 8b 3b             	mov    (%rbx),%rdi
  ac:	4c 8b 4c 24 08       	mov    0x8(%rsp),%r9
  b1:	49 83 c6 01          	add    $0x1,%r14
  b5:	4c 3b 73 08          	cmp    0x8(%rbx),%r14
  b9:	72 c5                	jb     80 <ht_set+0x80>
  bb:	4c 89 4c 24 08       	mov    %r9,0x8(%rsp)
  c0:	e8 00 00 00 00       	callq  c5 <ht_set+0xc5>
  c5:	4c 8b 4c 24 08       	mov    0x8(%rsp),%r9
  ca:	4c 89 3b             	mov    %r15,(%rbx)
  cd:	4c 89 4b 08          	mov    %r9,0x8(%rbx)
  d1:	4c 89 cd             	mov    %r9,%rbp
  d4:	eb 0d                	jmp    e3 <ht_set+0xe3>
  d6:	66 2e 0f 1f 84 00 00 	nopw   %cs:0x0(%rax,%rax,1)
  dd:	00 00 00 
  e0:	4c 8b 3f             	mov    (%rdi),%r15
  e3:	48 83 c4 18          	add    $0x18,%rsp
  e7:	4c 8d 43 10          	lea    0x10(%rbx),%r8
  eb:	4c 89 e1             	mov    %r12,%rcx
  ee:	4c 89 ea             	mov    %r13,%rdx
  f1:	5b                   	pop    %rbx
  f2:	48 89 ee             	mov    %rbp,%rsi
  f5:	4c 89 ff             	mov    %r15,%rdi
  f8:	5d                   	pop    %rbp
  f9:	41 5c                	pop    %r12
  fb:	41 5d                	pop    %r13
  fd:	41 5e                	pop    %r14
  ff:	41 5f                	pop    %r15
 101:	e9 00 00 00 00       	jmpq   106 <ht_set+0x106>
 106:	66 2e 0f 1f 84 00 00 	nopw   %cs:0x0(%rax,%rax,1)
 10d:	00 00 00 
 110:	48 8b 3d 00 00 00 00 	mov    0x0(%rip),%rdi        # 117 <ht_set+0x117>
 117:	48 8d 0d 00 00 00 00 	lea    0x0(%rip),%rcx        # 11e <ht_set+0x11e>
 11e:	48 8d 15 00 00 00 00 	lea    0x0(%rip),%rdx        # 125 <ht_set+0x125>
 125:	31 c0                	xor    %eax,%eax
 127:	be 01 00 00 00       	mov    $0x1,%esi
 12c:	e8 00 00 00 00       	callq  131 <ht_set+0x131>
 131:	48 8b 3d 00 00 00 00 	mov    0x0(%rip),%rdi        # 138 <ht_set+0x138>
 138:	48 8d 0d 00 00 00 00 	lea    0x0(%rip),%rcx        # 13f <ht_set+0x13f>
 13f:	48 8d 15 00 00 00 00 	lea    0x0(%rip),%rdx        # 146 <ht_set+0x146>
 146:	31 c0                	xor    %eax,%eax
 148:	be 01 00 00 00       	mov    $0x1,%esi
 14d:	e8 00 00 00 00       	callq  152 <ht_set+0x152>
 152:	48 83 c4 18          	add    $0x18,%rsp
 156:	31 c0                	xor    %eax,%eax
 158:	5b                   	pop    %rbx
 159:	5d                   	pop    %rbp
 15a:	41 5c                	pop    %r12
 15c:	41 5d                	pop    %r13
 15e:	41 5e                	pop    %r14
 160:	41 5f                	pop    %r15
 162:	c3                   	retq   
 163:	48 8d 0d 00 00 00 00 	lea    0x0(%rip),%rcx        # 16a <ht_set+0x16a>
 16a:	ba 3d 02 00 00       	mov    $0x23d,%edx
 16f:	48 8d 35 00 00 00 00 	lea    0x0(%rip),%rsi        # 176 <ht_set+0x176>
 176:	48 8d 3d 00 00 00 00 	lea    0x0(%rip),%rdi        # 17d <ht_set+0x17d>
 17d:	e8 00 00 00 00       	callq  182 <ht_set+0x182>
 182:	48 8b 3d 00 00 00 00 	mov    0x0(%rip),%rdi        # 189 <ht_set+0x189>
 189:	48 8d 0d 00 00 00 00 	lea    0x0(%rip),%rcx        # 190 <ht_set+0x190>
 190:	48 8d 15 00 00 00 00 	lea    0x0(%rip),%rdx        # 197 <ht_set+0x197>
 197:	31 c0                	xor    %eax,%eax
 199:	be 01 00 00 00       	mov    $0x1,%esi
 19e:	e8 00 00 00 00       	callq  1a3 <ht_set+0x1a3>
 1a3:	bf 01 00 00 00       	mov    $0x1,%edi
 1a8:	e8 00 00 00 00       	callq  1ad <ht_set+0x1ad>
 1ad:	48 8b 3d 00 00 00 00 	mov    0x0(%rip),%rdi        # 1b4 <ht_set+0x1b4>
 1b4:	48 8d 0d 00 00 00 00 	lea    0x0(%rip),%rcx        # 1bb <ht_set+0x1bb>
 1bb:	48 8d 15 00 00 00 00 	lea    0x0(%rip),%rdx        # 1c2 <ht_set+0x1c2>
 1c2:	31 c0                	xor    %eax,%eax
 1c4:	be 01 00 00 00       	mov    $0x1,%esi
 1c9:	e8 00 00 00 00       	callq  1ce <ht_set+0x1ce>
 1ce:	e9 5e ff ff ff       	jmpq   131 <ht_set+0x131>

Disassembly of section .text.array_alloc_op_counts:

0000000000000000 <array_alloc_op_counts>:
   0:	41 54                	push   %r12
   2:	55                   	push   %rbp
   3:	48 89 fd             	mov    %rdi,%rbp
   6:	53                   	push   %rbx
   7:	48 83 7e 08 00       	cmpq   $0x0,0x8(%rsi)
   c:	74 6a                	je     78 <array_alloc_op_counts+0x78>
   e:	48 8b 56 20          	mov    0x20(%rsi),%rdx
  12:	48 8b 06             	mov    (%rsi),%rax
  15:	48 89 f3             	mov    %rsi,%rbx
  18:	4c 8b 64 d0 f8       	mov    -0x8(%rax,%rdx,8),%r12
  1d:	4d 85 e4             	test   %r12,%r12
  20:	0f 84 aa 00 00 00    	je     d0 <array_alloc_op_counts+0xd0>
  26:	4c 89 e6             	mov    %r12,%rsi
  29:	e8 00 00 00 00       	callq  2e <array_alloc_op_counts+0x2e>
  2e:	48 85 c0             	test   %rax,%rax
  31:	74 0d                	je     40 <array_alloc_op_counts+0x40>
  33:	5b                   	pop    %rbx
  34:	5d                   	pop    %rbp
  35:	41 5c                	pop    %r12
  37:	c3                   	retq   
  38:	0f 1f 84 00 00 00 00 	nopl   0x0(%rax,%rax,1)
  3f:	00 
  40:	bf c8 04 00 00       	mov    $0x4c8,%edi
  45:	e8 00 00 00 00       	callq  4a <array_alloc_op_counts+0x4a>
  4a:	48 89 c2             	mov    %rax,%rdx
  4d:	48 85 d2             	test   %rdx,%rdx
  50:	0f 84 cc 00 00 00    	je     122 <array_alloc_op_counts+0x122>
  56:	b9 99 00 00 00       	mov    $0x99,%ecx
  5b:	31 c0                	xor    %eax,%eax
  5d:	48 89 d7             	mov    %rdx,%rdi
  60:	4c 89 e6             	mov    %r12,%rsi
  63:	f3 48 ab             	rep stos %rax,%es:(%rdi)
  66:	48 89 ef             	mov    %rbp,%rdi
  69:	5b                   	pop    %rbx
  6a:	5d                   	pop    %rbp
  6b:	41 5c                	pop    %r12
  6d:	e9 00 00 00 00       	jmpq   72 <array_alloc_op_counts+0x72>
  72:	66 0f 1f 44 00 00    	nopw   0x0(%rax,%rax,1)
  78:	48 8b 3d 00 00 00 00 	mov    0x0(%rip),%rdi        # 7f <array_alloc_op_counts+0x7f>
  7f:	be 01 00 00 00       	mov    $0x1,%esi
  84:	31 c0                	xor    %eax,%eax
  86:	48 8d 0d 00 00 00 00 	lea    0x0(%rip),%rcx        # 8d <array_alloc_op_counts+0x8d>
  8d:	48 8d 15 00 00 00 00 	lea    0x0(%rip),%rdx        # 94 <array_alloc_op_counts+0x94>
  94:	e8 00 00 00 00       	callq  99 <array_alloc_op_counts+0x99>
  99:	31 f6                	xor    %esi,%esi
  9b:	48 89 ef             	mov    %rbp,%rdi
  9e:	e8 00 00 00 00       	callq  a3 <array_alloc_op_counts+0xa3>
  a3:	48 85 c0             	test   %rax,%rax
  a6:	75 8b                	jne    33 <array_alloc_op_counts+0x33>
  a8:	48 8d 0d 00 00 00 00 	lea    0x0(%rip),%rcx        # af <array_alloc_op_counts+0xaf>
  af:	ba 7b 02 00 00       	mov    $0x27b,%edx
  b4:	48 8d 35 00 00 00 00 	lea    0x0(%rip),%rsi        # bb <array_alloc_op_counts+0xbb>
  bb:	48 8d 3d 00 00 00 00 	lea    0x0(%rip),%rdi        # c2 <array_alloc_op_counts+0xc2>
  c2:	e8 00 00 00 00       	callq  c7 <array_alloc_op_counts+0xc7>
  c7:	66 0f 1f 84 00 00 00 	nopw   0x0(%rax,%rax,1)
  ce:	00 00 
  d0:	48 8d 15 00 00 00 00 	lea    0x0(%rip),%rdx        # d7 <array_alloc_op_counts+0xd7>
  d7:	48 8d 35 00 00 00 00 	lea    0x0(%rip),%rsi        # de <array_alloc_op_counts+0xde>
  de:	bf 01 00 00 00       	mov    $0x1,%edi
  e3:	31 c0                	xor    %eax,%eax
  e5:	e8 00 00 00 00       	callq  ea <array_alloc_op_counts+0xea>
  ea:	48 8b 53 20          	mov    0x20(%rbx),%rdx
  ee:	48 8b 03             	mov    (%rbx),%rax
  f1:	48 89 ef             	mov    %rbp,%rdi
  f4:	4c 8b 64 d0 f8       	mov    -0x8(%rax,%rdx,8),%r12
  f9:	4c 89 e6             	mov    %r12,%rsi
  fc:	e8 00 00 00 00       	callq  101 <array_alloc_op_counts+0x101>
 101:	48 85 c0             	test   %rax,%rax
 104:	0f 85 29 ff ff ff    	jne    33 <array_alloc_op_counts+0x33>
 10a:	bf c8 04 00 00       	mov    $0x4c8,%edi
 10f:	e8 00 00 00 00       	callq  114 <array_alloc_op_counts+0x114>
 114:	48 89 c2             	mov    %rax,%rdx
 117:	4d 85 e4             	test   %r12,%r12
 11a:	0f 85 2d ff ff ff    	jne    4d <array_alloc_op_counts+0x4d>
 120:	eb 86                	jmp    a8 <array_alloc_op_counts+0xa8>
 122:	48 8b 3d 00 00 00 00 	mov    0x0(%rip),%rdi        # 129 <array_alloc_op_counts+0x129>
 129:	5b                   	pop    %rbx
 12a:	be 01 00 00 00       	mov    $0x1,%esi
 12f:	31 c0                	xor    %eax,%eax
 131:	5d                   	pop    %rbp
 132:	48 8d 0d 00 00 00 00 	lea    0x0(%rip),%rcx        # 139 <array_alloc_op_counts+0x139>
 139:	48 8d 15 00 00 00 00 	lea    0x0(%rip),%rdx        # 140 <array_alloc_op_counts+0x140>
 140:	41 5c                	pop    %r12
 142:	e9 00 00 00 00       	jmpq   147 <.LC40+0x10>

Disassembly of section .text.ht_length:

0000000000000000 <ht_length>:
   0:	f3 0f 1e fa          	endbr64 
   4:	48 8b 47 10          	mov    0x10(%rdi),%rax
   8:	c3                   	retq   

Disassembly of section .text.ht_iterator:

0000000000000000 <ht_iterator>:
   0:	f3 0f 1e fa          	endbr64 
   4:	48 c7 07 00 00 00 00 	movq   $0x0,(%rdi)
   b:	48 89 f8             	mov    %rdi,%rax
   e:	48 c7 47 08 00 00 00 	movq   $0x0,0x8(%rdi)
  15:	00 
  16:	48 89 77 10          	mov    %rsi,0x10(%rdi)
  1a:	48 c7 47 18 00 00 00 	movq   $0x0,0x18(%rdi)
  21:	00 
  22:	c3                   	retq   

Disassembly of section .text.ht_next:

0000000000000000 <ht_next>:
   0:	f3 0f 1e fa          	endbr64 
   4:	48 8b 4f 10          	mov    0x10(%rdi),%rcx
   8:	48 8b 47 18          	mov    0x18(%rdi),%rax
   c:	eb 1c                	jmp    2a <ht_next+0x2a>
   e:	66 90                	xchg   %ax,%ax
  10:	48 8d 50 01          	lea    0x1(%rax),%rdx
  14:	48 c1 e0 04          	shl    $0x4,%rax
  18:	48 89 57 18          	mov    %rdx,0x18(%rdi)
  1c:	48 03 01             	add    (%rcx),%rax
  1f:	48 8b 30             	mov    (%rax),%rsi
  22:	48 85 f6             	test   %rsi,%rsi
  25:	75 11                	jne    38 <ht_next+0x38>
  27:	48 89 d0             	mov    %rdx,%rax
  2a:	48 39 41 08          	cmp    %rax,0x8(%rcx)
  2e:	77 e0                	ja     10 <ht_next+0x10>
  30:	31 c0                	xor    %eax,%eax
  32:	c3                   	retq   
  33:	0f 1f 44 00 00       	nopl   0x0(%rax,%rax,1)
  38:	48 8b 40 08          	mov    0x8(%rax),%rax
  3c:	48 89 37             	mov    %rsi,(%rdi)
  3f:	48 89 47 08          	mov    %rax,0x8(%rdi)
  43:	b8 01 00 00 00       	mov    $0x1,%eax
  48:	c3                   	retq   

Disassembly of section .text.caml_interprete:

0000000000000000 <caml_interprete>:
       0:	f3 0f 1e fa          	endbr64 
       4:	41 57                	push   %r15
       6:	41 56                	push   %r14
       8:	41 55                	push   %r13
       a:	41 54                	push   %r12
       c:	55                   	push   %rbp
       d:	53                   	push   %rbx
       e:	48 89 fb             	mov    %rdi,%rbx
      11:	48 81 ec 08 04 00 00 	sub    $0x408,%rsp
      18:	48 89 7c 24 28       	mov    %rdi,0x28(%rsp)
      1d:	48 8d bc 24 30 03 00 	lea    0x330(%rsp),%rdi
      24:	00 
      25:	48 89 74 24 58       	mov    %rsi,0x58(%rsp)
      2a:	64 48 8b 04 25 28 00 	mov    %fs:0x28,%rax
      31:	00 00 
      33:	48 89 84 24 f8 03 00 	mov    %rax,0x3f8(%rsp)
      3a:	00 
      3b:	31 c0                	xor    %eax,%eax
      3d:	48 8b 05 00 00 00 00 	mov    0x0(%rip),%rax        # 44 <caml_interprete+0x44>
      44:	48 c7 84 24 08 03 00 	movq   $0x1,0x308(%rsp)
      4b:	00 01 00 00 00 
      50:	64 48 8b 00          	mov    %fs:(%rax),%rax
      54:	48 89 bc 24 10 03 00 	mov    %rdi,0x310(%rsp)
      5b:	00 
      5c:	48 89 44 24 08       	mov    %rax,0x8(%rsp)
      61:	48 8b 80 a0 00 00 00 	mov    0xa0(%rax),%rax
      68:	48 89 84 24 18 03 00 	mov    %rax,0x318(%rsp)
      6f:	00 
      70:	48 8d 84 24 08 03 00 	lea    0x308(%rsp),%rax
      77:	00 
      78:	48 89 84 24 20 03 00 	mov    %rax,0x320(%rsp)
      7f:	00 
      80:	48 85 db             	test   %rbx,%rbx
      83:	0f 84 0e 07 00 00    	je     797 <__stubGETGLOBAL+0x19>
      89:	48 8b 5c 24 08       	mov    0x8(%rsp),%rbx
      8e:	31 f6                	xor    %esi,%esi
      90:	48 8b 83 d8 01 00 00 	mov    0x1d8(%rbx),%rax
      97:	48 8b 53 20          	mov    0x20(%rbx),%rdx
      9b:	48 89 44 24 68       	mov    %rax,0x68(%rsp)
      a0:	48 8b 42 10          	mov    0x10(%rdx),%rax
      a4:	48 2b 02             	sub    (%rdx),%rax
      a7:	48 c1 f8 03          	sar    $0x3,%rax
      ab:	48 89 44 24 70       	mov    %rax,0x70(%rsp)
      b0:	48 8b 83 e8 01 00 00 	mov    0x1e8(%rbx),%rax
      b7:	48 89 44 24 60       	mov    %rax,0x60(%rsp)
      bc:	e8 00 00 00 00       	callq  c1 <caml_interprete+0xc1>
      c1:	f3 0f 1e fa          	endbr64 
      c5:	48 8b 7c 24 08       	mov    0x8(%rsp),%rdi
      ca:	48 8b 57 20          	mov    0x20(%rdi),%rdx
      ce:	85 c0                	test   %eax,%eax
      d0:	0f 84 0e 04 00 00    	je     4e4 <__stubCHECK_SIGNALS+0x354>
      d6:	48 8b 2a             	mov    (%rdx),%rbp
      d9:	48 8b 9c 24 08 03 00 	mov    0x308(%rsp),%rbx
      e0:	00 
      e1:	48 8b 87 e0 01 00 00 	mov    0x1e0(%rdi),%rax
      e8:	48 39 87 d8 01 00 00 	cmp    %rax,0x1d8(%rdi)
      ef:	0f 8d c3 04 00 00    	jge    5b8 <__stubCHECK_SIGNALS+0x428>
      f5:	48 8b 44 24 08       	mov    0x8(%rsp),%rax
      fa:	48 83 b8 c0 00 00 00 	cmpq   $0x0,0xc0(%rax)
     101:	00 
     102:	0f 85 33 01 00 00    	jne    23b <__stubCHECK_SIGNALS+0xab>
     108:	48 8b 44 24 08       	mov    0x8(%rsp),%rax
     10d:	48 8b 80 d8 01 00 00 	mov    0x1d8(%rax),%rax
     114:	48 8b 7c 24 08       	mov    0x8(%rsp),%rdi
     119:	48 8b 7f 20          	mov    0x20(%rdi),%rdi
     11d:	48 8b 57 10          	mov    0x10(%rdi),%rdx
     121:	48 85 c0             	test   %rax,%rax
     124:	0f 8e 23 01 00 00    	jle    24d <__stubCHECK_SIGNALS+0xbd>
     12a:	48 8b 42 18          	mov    0x18(%rdx),%rax
     12e:	48 85 c0             	test   %rax,%rax
     131:	0f 84 49 07 00 00    	je     880 <__stubGETGLOBAL+0x102>
     137:	4c 8b 74 24 08       	mov    0x8(%rsp),%r14
     13c:	4c 8b 7a 08          	mov    0x8(%rdx),%r15
     140:	48 89 2f             	mov    %rbp,(%rdi)
     143:	49 89 46 20          	mov    %rax,0x20(%r14)
     147:	4c 8b 20             	mov    (%rax),%r12
     14a:	49 8d 6c 24 08       	lea    0x8(%r12),%rbp
     14f:	e8 00 00 00 00       	callq  154 <caml_interprete+0x154>
     154:	49 8b 04 24          	mov    (%r12),%rax
     158:	48 d1 f8             	sar    %rax
     15b:	49 89 86 d8 01 00 00 	mov    %rax,0x1d8(%r14)
     162:	4d 8b 74 24 08       	mov    0x8(%r12),%r14
     167:	49 89 5c 24 08       	mov    %rbx,0x8(%r12)
     16c:	4d 8b 2f             	mov    (%r15),%r13
     16f:	49 d1 fe             	sar    %r14
     172:	48 8b 44 24 08       	mov    0x8(%rsp),%rax
     177:	4c 89 7c 24 18       	mov    %r15,0x18(%rsp)
     17c:	48 8b 40 20          	mov    0x20(%rax),%rax
     180:	48 8d 90 a8 00 00 00 	lea    0xa8(%rax),%rdx
     187:	48 39 d5             	cmp    %rdx,%rbp
     18a:	0f 82 4f 04 00 00    	jb     5df <__stubCHECK_SIGNALS+0x44f>

0000000000000190 <__stubCHECK_SIGNALS>:
     190:	e8 00 00 00 00       	callq  195 <__stubCHECK_SIGNALS+0x5>
     195:	48 8b 5c 24 08       	mov    0x8(%rsp),%rbx
     19a:	48 8b 03             	mov    (%rbx),%rax
     19d:	48 39 43 08          	cmp    %rax,0x8(%rbx)
     1a1:	72 21                	jb     1c4 <__stubCHECK_SIGNALS+0x34>
     1a3:	e8 00 00 00 00       	callq  1a8 <__stubCHECK_SIGNALS+0x18>
     1a8:	48 8b 5c 24 20       	mov    0x20(%rsp),%rbx
     1ad:	48 89 5c 24 10       	mov    %rbx,0x10(%rsp)
     1b2:	48 8b 5c 24 30       	mov    0x30(%rsp),%rbx
     1b7:	48 89 5c 24 48       	mov    %rbx,0x48(%rsp)
     1bc:	85 c0                	test   %eax,%eax
     1be:	0f 84 ce 00 00 00    	je     292 <__stubCHECK_SIGNALS+0x102>
     1c4:	4f 8d 64 36 01       	lea    0x1(%r14,%r14,1),%r12
     1c9:	48 8b 5c 24 08       	mov    0x8(%rsp),%rbx
     1ce:	48 8b 44 24 18       	mov    0x18(%rsp),%rax
     1d3:	4c 89 7d d0          	mov    %r15,-0x30(%rbp)
     1d7:	48 8d 55 d0          	lea    -0x30(%rbp),%rdx
     1db:	4c 89 6d e8          	mov    %r13,-0x18(%rbp)
     1df:	48 c7 45 d8 01 00 00 	movq   $0x1,-0x28(%rbp)
     1e6:	00 
     1e7:	48 c7 45 e0 01 00 00 	movq   $0x1,-0x20(%rbp)
     1ee:	00 
     1ef:	48 89 45 f0          	mov    %rax,-0x10(%rbp)
     1f3:	4c 89 65 f8          	mov    %r12,-0x8(%rbp)
     1f7:	48 8b 43 20          	mov    0x20(%rbx),%rax
     1fb:	48 89 10             	mov    %rdx,(%rax)
     1fe:	e8 00 00 00 00       	callq  203 <__stubCHECK_SIGNALS+0x73>
     203:	48 8b 43 20          	mov    0x20(%rbx),%rax
     207:	48 8b 00             	mov    (%rax),%rax
     20a:	48 8b 58 20          	mov    0x20(%rax),%rbx
     20e:	4c 8b 70 28          	mov    0x28(%rax),%r14
     212:	48 8d 68 30          	lea    0x30(%rax),%rbp
     216:	4c 8b 38             	mov    (%rax),%r15
     219:	4c 8b 68 18          	mov    0x18(%rax),%r13
     21d:	48 8b 44 24 20       	mov    0x20(%rsp),%rax
     222:	48 89 5c 24 18       	mov    %rbx,0x18(%rsp)
     227:	49 d1 fe             	sar    %r14
     22a:	48 89 44 24 10       	mov    %rax,0x10(%rsp)
     22f:	48 8b 44 24 30       	mov    0x30(%rsp),%rax
     234:	48 89 44 24 48       	mov    %rax,0x48(%rsp)
     239:	eb 57                	jmp    292 <__stubCHECK_SIGNALS+0x102>
     23b:	31 d2                	xor    %edx,%edx
     23d:	48 89 ee             	mov    %rbp,%rsi
     240:	48 89 df             	mov    %rbx,%rdi
     243:	e8 00 00 00 00       	callq  248 <__stubCHECK_SIGNALS+0xb8>
     248:	e9 bb fe ff ff       	jmpq   108 <caml_interprete+0x108>
     24d:	48 8d 04 c2          	lea    (%rdx,%rax,8),%rax
     251:	48 8b 7c 24 08       	mov    0x8(%rsp),%rdi
     256:	49 89 df             	mov    %rbx,%r15
     259:	48 8b 50 08          	mov    0x8(%rax),%rdx
     25d:	4c 8b 28             	mov    (%rax),%r13
     260:	48 8d 68 20          	lea    0x20(%rax),%rbp
     264:	48 d1 fa             	sar    %rdx
     267:	48 89 97 d8 01 00 00 	mov    %rdx,0x1d8(%rdi)
     26e:	48 8b 78 10          	mov    0x10(%rax),%rdi
     272:	4c 8b 70 18          	mov    0x18(%rax),%r14
     276:	48 8b 44 24 20       	mov    0x20(%rsp),%rax
     27b:	48 89 7c 24 18       	mov    %rdi,0x18(%rsp)
     280:	48 89 44 24 10       	mov    %rax,0x10(%rsp)
     285:	48 8b 44 24 30       	mov    0x30(%rsp),%rax
     28a:	49 d1 fe             	sar    %r14
     28d:	48 89 44 24 48       	mov    %rax,0x48(%rsp)
     292:	48 8b 44 24 10       	mov    0x10(%rsp),%rax
     297:	4d 89 ec             	mov    %r13,%r12
     29a:	48 8b 5c 24 08       	mov    0x8(%rsp),%rbx
     29f:	4c 8b 6c 24 58       	mov    0x58(%rsp),%r13
     2a4:	48 89 44 24 20       	mov    %rax,0x20(%rsp)
     2a9:	48 8b 44 24 48       	mov    0x48(%rsp),%rax
     2ae:	48 89 44 24 30       	mov    %rax,0x30(%rsp)
     2b3:	0f 1f 44 00 00       	nopl   0x0(%rax,%rax,1)
     2b8:	48 8b 15 00 00 00 00 	mov    0x0(%rip),%rdx        # 2bf <__stubCHECK_SIGNALS+0x12f>
     2bf:	64 48 83 04 25 00 00 	addq   $0x1,%fs:0x0
     2c6:	00 00 01 
     2c9:	64 48 8b 02          	mov    %fs:(%rdx),%rax
     2cd:	48 8d 48 ff          	lea    -0x1(%rax),%rcx
     2d1:	64 48 89 0a          	mov    %rcx,%fs:(%rdx)
     2d5:	48 85 c0             	test   %rax,%rax
     2d8:	0f 84 c2 00 00 00    	je     3a0 <__stubCHECK_SIGNALS+0x210>
     2de:	48 8b 05 00 00 00 00 	mov    0x0(%rip),%rax        # 2e5 <__stubCHECK_SIGNALS+0x155>
     2e5:	48 8b 40 30          	mov    0x30(%rax),%rax
     2e9:	48 83 f8 01          	cmp    $0x1,%rax
     2ed:	76 27                	jbe    316 <__stubCHECK_SIGNALS+0x186>
     2ef:	64 48 8b 14 25 00 00 	mov    %fs:0x0,%rdx
     2f6:	00 00 
     2f8:	48 8d 35 00 00 00 00 	lea    0x0(%rip),%rsi        # 2ff <__stubCHECK_SIGNALS+0x16f>
     2ff:	bf 01 00 00 00       	mov    $0x1,%edi
     304:	31 c0                	xor    %eax,%eax
     306:	e8 00 00 00 00       	callq  30b <__stubCHECK_SIGNALS+0x17b>
     30b:	48 8b 05 00 00 00 00 	mov    0x0(%rip),%rax        # 312 <__stubCHECK_SIGNALS+0x182>
     312:	48 8b 40 30          	mov    0x30(%rax),%rax
     316:	48 85 c0             	test   %rax,%rax
     319:	0f 85 b1 00 00 00    	jne    3d0 <__stubCHECK_SIGNALS+0x240>
     31f:	48 8b 43 20          	mov    0x20(%rbx),%rax
     323:	48 8d 50 28          	lea    0x28(%rax),%rdx
     327:	48 39 d5             	cmp    %rdx,%rbp
     32a:	0f 82 1a 2e 00 00    	jb     314a <__stubDIVINT+0xb21>
     330:	48 39 68 10          	cmp    %rbp,0x10(%rax)
     334:	0f 82 e6 2d 00 00    	jb     3120 <__stubDIVINT+0xaf7>
     33a:	41 8b 0c 24          	mov    (%r12),%ecx
     33e:	81 f9 98 00 00 00    	cmp    $0x98,%ecx
     344:	7f 6a                	jg     3b0 <__stubCHECK_SIGNALS+0x220>
     346:	48 8b 44 24 38       	mov    0x38(%rsp),%rax
     34b:	4c 63 c1             	movslq %ecx,%r8
     34e:	48 83 44 24 40 01    	addq   $0x1,0x40(%rsp)
     354:	49 c1 e0 03          	shl    $0x3,%r8
     358:	4a 83 04 00 01       	addq   $0x1,(%rax,%r8,1)
     35d:	48 8b 44 24 30       	mov    0x30(%rsp),%rax
     362:	48 83 78 08 00       	cmpq   $0x0,0x8(%rax)
     367:	0f 85 eb 00 00 00    	jne    458 <__stubCHECK_SIGNALS+0x2c8>
     36d:	4d 8d 4c 24 04       	lea    0x4(%r12),%r9
     372:	4c 89 f2             	mov    %r14,%rdx
     375:	4f 8d 44 36 01       	lea    0x1(%r14,%r14,1),%r8
     37a:	81 f9 98 00 00 00    	cmp    $0x98,%ecx
     380:	0f 87 b2 2d 00 00    	ja     3138 <__stubDIVINT+0xb0f>
     386:	48 8d 35 00 00 00 00 	lea    0x0(%rip),%rsi        # 38d <__stubCHECK_SIGNALS+0x1fd>
     38d:	89 c9                	mov    %ecx,%ecx
     38f:	48 63 04 8e          	movslq (%rsi,%rcx,4),%rax
     393:	48 01 f0             	add    %rsi,%rax
     396:	3e ff e0             	notrack jmpq *%rax
     399:	0f 1f 80 00 00 00 00 	nopl   0x0(%rax)
     3a0:	e8 00 00 00 00       	callq  3a5 <__stubCHECK_SIGNALS+0x215>
     3a5:	e9 34 ff ff ff       	jmpq   2de <__stubCHECK_SIGNALS+0x14e>
     3aa:	66 0f 1f 44 00 00    	nopw   0x0(%rax,%rax,1)
     3b0:	48 8b 3d 00 00 00 00 	mov    0x0(%rip),%rdi        # 3b7 <__stubCHECK_SIGNALS+0x227>
     3b7:	48 8d 15 00 00 00 00 	lea    0x0(%rip),%rdx        # 3be <__stubCHECK_SIGNALS+0x22e>
     3be:	be 01 00 00 00       	mov    $0x1,%esi
     3c3:	31 c0                	xor    %eax,%eax
     3c5:	e8 00 00 00 00       	callq  3ca <__stubCHECK_SIGNALS+0x23a>
     3ca:	41 8b 0c 24          	mov    (%r12),%ecx
     3ce:	eb 9d                	jmp    36d <__stubCHECK_SIGNALS+0x1dd>
     3d0:	4c 89 e7             	mov    %r12,%rdi
     3d3:	e8 00 00 00 00       	callq  3d8 <__stubCHECK_SIGNALS+0x248>
     3d8:	48 8b 05 00 00 00 00 	mov    0x0(%rip),%rax        # 3df <__stubCHECK_SIGNALS+0x24f>
     3df:	48 83 78 30 01       	cmpq   $0x1,0x30(%rax)
     3e4:	0f 86 35 ff ff ff    	jbe    31f <__stubCHECK_SIGNALS+0x18f>
     3ea:	48 8d 35 00 00 00 00 	lea    0x0(%rip),%rsi        # 3f1 <__stubCHECK_SIGNALS+0x261>
     3f1:	bf 01 00 00 00       	mov    $0x1,%edi
     3f6:	31 c0                	xor    %eax,%eax
     3f8:	e8 00 00 00 00       	callq  3fd <__stubCHECK_SIGNALS+0x26d>
     3fd:	48 8b 0d 00 00 00 00 	mov    0x0(%rip),%rcx        # 404 <__stubCHECK_SIGNALS+0x274>
     404:	48 8b 74 24 28       	mov    0x28(%rsp),%rsi
     409:	4c 89 ea             	mov    %r13,%rdx
     40c:	48 8b 7c 24 18       	mov    0x18(%rsp),%rdi
     411:	e8 00 00 00 00       	callq  416 <__stubCHECK_SIGNALS+0x286>
     416:	48 8b 35 00 00 00 00 	mov    0x0(%rip),%rsi        # 41d <__stubCHECK_SIGNALS+0x28d>
     41d:	bf 0a 00 00 00       	mov    $0xa,%edi
     422:	e8 00 00 00 00       	callq  427 <__stubCHECK_SIGNALS+0x297>
     427:	48 8b 54 24 28       	mov    0x28(%rsp),%rdx
     42c:	4c 89 ff             	mov    %r15,%rdi
     42f:	4c 89 e9             	mov    %r13,%rcx
     432:	4c 8b 05 00 00 00 00 	mov    0x0(%rip),%r8        # 439 <__stubCHECK_SIGNALS+0x2a9>
     439:	48 89 ee             	mov    %rbp,%rsi
     43c:	e8 00 00 00 00       	callq  441 <__stubCHECK_SIGNALS+0x2b1>
     441:	48 8b 3d 00 00 00 00 	mov    0x0(%rip),%rdi        # 448 <__stubCHECK_SIGNALS+0x2b8>
     448:	e8 00 00 00 00       	callq  44d <__stubCHECK_SIGNALS+0x2bd>
     44d:	e9 cd fe ff ff       	jmpq   31f <__stubCHECK_SIGNALS+0x18f>
     452:	66 0f 1f 44 00 00    	nopw   0x0(%rax,%rax,1)
     458:	48 8b 44 24 48       	mov    0x48(%rsp),%rax
     45d:	48 83 78 08 00       	cmpq   $0x0,0x8(%rax)
     462:	74 40                	je     4a4 <__stubCHECK_SIGNALS+0x314>
     464:	48 8b 50 20          	mov    0x20(%rax),%rdx
     468:	48 8b 00             	mov    (%rax),%rax
     46b:	48 8b 74 d0 f8       	mov    -0x8(%rax,%rdx,8),%rsi
     470:	48 85 f6             	test   %rsi,%rsi
     473:	0f 84 b7 03 00 00    	je     830 <__stubGETGLOBAL+0xb2>
     479:	48 8b 7c 24 10       	mov    0x10(%rsp),%rdi
     47e:	4c 89 44 24 50       	mov    %r8,0x50(%rsp)
     483:	e8 00 00 00 00       	callq  488 <__stubCHECK_SIGNALS+0x2f8>
     488:	4c 8b 44 24 50       	mov    0x50(%rsp),%r8
     48d:	48 85 c0             	test   %rax,%rax
     490:	0f 84 42 2c 00 00    	je     30d8 <__stubDIVINT+0xaaf>
     496:	4a 83 04 00 01       	addq   $0x1,(%rax,%r8,1)
     49b:	41 8b 0c 24          	mov    (%r12),%ecx
     49f:	e9 c9 fe ff ff       	jmpq   36d <__stubCHECK_SIGNALS+0x1dd>
     4a4:	48 8b 3d 00 00 00 00 	mov    0x0(%rip),%rdi        # 4ab <__stubCHECK_SIGNALS+0x31b>
     4ab:	48 8d 0d 00 00 00 00 	lea    0x0(%rip),%rcx        # 4b2 <__stubCHECK_SIGNALS+0x322>
     4b2:	48 8d 15 00 00 00 00 	lea    0x0(%rip),%rdx        # 4b9 <__stubCHECK_SIGNALS+0x329>
     4b9:	31 c0                	xor    %eax,%eax
     4bb:	be 01 00 00 00       	mov    $0x1,%esi
     4c0:	e8 00 00 00 00       	callq  4c5 <__stubCHECK_SIGNALS+0x335>
     4c5:	48 8d 0d 00 00 00 00 	lea    0x0(%rip),%rcx        # 4cc <__stubCHECK_SIGNALS+0x33c>
     4cc:	ba 60 02 00 00       	mov    $0x260,%edx
     4d1:	48 8d 35 00 00 00 00 	lea    0x0(%rip),%rsi        # 4d8 <__stubCHECK_SIGNALS+0x348>
     4d8:	48 8d 3d 00 00 00 00 	lea    0x0(%rip),%rdi        # 4df <__stubCHECK_SIGNALS+0x34f>
     4df:	e8 00 00 00 00       	callq  4e4 <__stubCHECK_SIGNALS+0x354>
     4e4:	48 8b 5c 24 08       	mov    0x8(%rsp),%rbx
     4e9:	48 8d 84 24 10 03 00 	lea    0x310(%rsp),%rax
     4f0:	00 
     4f1:	31 ff                	xor    %edi,%edi
     4f3:	48 89 83 e8 01 00 00 	mov    %rax,0x1e8(%rbx)
     4fa:	48 c7 83 d8 01 00 00 	movq   $0x1,0x1d8(%rbx)
     501:	01 00 00 00 
     505:	48 8b 2a             	mov    (%rdx),%rbp
     508:	e8 00 00 00 00       	callq  50d <__stubCHECK_SIGNALS+0x37d>
     50d:	bf c8 04 00 00       	mov    $0x4c8,%edi
     512:	48 c7 44 24 40 00 00 	movq   $0x0,0x40(%rsp)
     519:	00 00 
     51b:	48 89 44 24 18       	mov    %rax,0x18(%rsp)
     520:	e8 00 00 00 00       	callq  525 <__stubCHECK_SIGNALS+0x395>
     525:	48 89 44 24 38       	mov    %rax,0x38(%rsp)
     52a:	48 85 c0             	test   %rax,%rax
     52d:	0f 84 c4 2b 00 00    	je     30f7 <__stubDIVINT+0xace>
     533:	48 8b 7c 24 38       	mov    0x38(%rsp),%rdi
     538:	31 c0                	xor    %eax,%eax
     53a:	b9 99 00 00 00       	mov    $0x99,%ecx
     53f:	be 01 00 00 00       	mov    $0x1,%esi
     544:	f3 48 ab             	rep stos %rax,%es:(%rdi)
     547:	bf 00 20 00 00       	mov    $0x2000,%edi
     54c:	e8 00 00 00 00       	callq  551 <__stubCHECK_SIGNALS+0x3c1>
     551:	49 89 c4             	mov    %rax,%r12
     554:	48 85 c0             	test   %rax,%rax
     557:	0f 84 18 2b 00 00    	je     3075 <__stubDIVINT+0xa4c>
     55d:	bf 28 00 00 00       	mov    $0x28,%edi
     562:	e8 00 00 00 00       	callq  567 <__stubCHECK_SIGNALS+0x3d7>
     567:	48 89 c3             	mov    %rax,%rbx
     56a:	48 85 c0             	test   %rax,%rax
     56d:	0f 84 46 2b 00 00    	je     30b9 <__stubDIVINT+0xa90>
     573:	4c 89 20             	mov    %r12,(%rax)
     576:	45 31 f6             	xor    %r14d,%r14d
     579:	41 bf 01 00 00 00    	mov    $0x1,%r15d
     57f:	48 c7 40 10 00 04 00 	movq   $0x400,0x10(%rax)
     586:	00 
     587:	48 c7 40 08 00 00 00 	movq   $0x0,0x8(%rax)
     58e:	00 
     58f:	48 c7 40 18 00 00 00 	movq   $0x0,0x18(%rax)
     596:	00 
     597:	48 c7 40 20 00 00 00 	movq   $0x0,0x20(%rax)
     59e:	00 
     59f:	e8 00 00 00 00       	callq  5a4 <__stubCHECK_SIGNALS+0x414>
     5a4:	48 89 5c 24 48       	mov    %rbx,0x48(%rsp)
     5a9:	4c 8b 6c 24 28       	mov    0x28(%rsp),%r13
     5ae:	48 89 44 24 10       	mov    %rax,0x10(%rsp)
     5b3:	e9 da fc ff ff       	jmpq   292 <__stubCHECK_SIGNALS+0x102>
     5b8:	be 01 00 00 00       	mov    $0x1,%esi
     5bd:	bf 04 00 00 00       	mov    $0x4,%edi
     5c2:	e8 00 00 00 00       	callq  5c7 <__stubCHECK_SIGNALS+0x437>
     5c7:	48 8b 44 24 08       	mov    0x8(%rsp),%rax
     5cc:	48 83 b8 c0 00 00 00 	cmpq   $0x0,0xc0(%rax)
     5d3:	00 
     5d4:	0f 84 2e fb ff ff    	je     108 <caml_interprete+0x108>
     5da:	e9 5c fc ff ff       	jmpq   23b <__stubCHECK_SIGNALS+0xab>
     5df:	48 89 28             	mov    %rbp,(%rax)
     5e2:	bf 10 00 00 00       	mov    $0x10,%edi
     5e7:	e8 00 00 00 00       	callq  5ec <__stubCHECK_SIGNALS+0x45c>
     5ec:	85 c0                	test   %eax,%eax
     5ee:	0f 84 60 2a 00 00    	je     3054 <__stubDIVINT+0xa2b>
     5f4:	48 8b 44 24 08       	mov    0x8(%rsp),%rax
     5f9:	4c 89 7c 24 18       	mov    %r15,0x18(%rsp)
     5fe:	48 8b 40 20          	mov    0x20(%rax),%rax
     602:	48 8b 28             	mov    (%rax),%rbp
     605:	e9 86 fb ff ff       	jmpq   190 <__stubCHECK_SIGNALS>

000000000000060a <__stubPUSH>:
     60a:	4c 89 7d f8          	mov    %r15,-0x8(%rbp)
     60e:	4d 89 cc             	mov    %r9,%r12
     611:	48 83 ed 08          	sub    $0x8,%rbp
     615:	0f 1f 00             	nopl   (%rax)
     618:	48 8b 44 24 10       	mov    0x10(%rsp),%rax
     61d:	48 89 44 24 20       	mov    %rax,0x20(%rsp)
     622:	e9 91 fc ff ff       	jmpq   2b8 <__stubCHECK_SIGNALS+0x128>

0000000000000627 <__stubPUSHACC>:
     627:	4c 89 7d f8          	mov    %r15,-0x8(%rbp)
     62b:	48 83 ed 08          	sub    $0x8,%rbp

000000000000062f <__stubACC>:
     62f:	49 63 44 24 04       	movslq 0x4(%r12),%rax
     634:	49 83 c4 08          	add    $0x8,%r12
     638:	4c 8b 7c c5 00       	mov    0x0(%rbp,%rax,8),%r15
     63d:	eb d9                	jmp    618 <__stubPUSH+0xe>

000000000000063f <__stubPUSHOFFSETCLOSURE>:
     63f:	4c 89 7d f8          	mov    %r15,-0x8(%rbp)
     643:	48 83 ed 08          	sub    $0x8,%rbp

0000000000000647 <__stubOFFSETCLOSURE>:
     647:	49 63 44 24 04       	movslq 0x4(%r12),%rax
     64c:	48 8b 7c 24 18       	mov    0x18(%rsp),%rdi
     651:	49 83 c4 08          	add    $0x8,%r12
     655:	4c 8d 3c c7          	lea    (%rdi,%rax,8),%r15
     659:	eb bd                	jmp    618 <__stubPUSH+0xe>

000000000000065b <__stubPUSHOFFSETCLOSURE3>:
     65b:	4c 89 7d f8          	mov    %r15,-0x8(%rbp)
     65f:	48 83 ed 08          	sub    $0x8,%rbp

0000000000000663 <__stubOFFSETCLOSURE3>:
     663:	48 8b 44 24 18       	mov    0x18(%rsp),%rax
     668:	4d 89 cc             	mov    %r9,%r12
     66b:	4c 8d 78 18          	lea    0x18(%rax),%r15
     66f:	eb a7                	jmp    618 <__stubPUSH+0xe>

0000000000000671 <__stubPUSHOFFSETCLOSURE0>:
     671:	4c 89 7d f8          	mov    %r15,-0x8(%rbp)
     675:	48 83 ed 08          	sub    $0x8,%rbp

0000000000000679 <__stubOFFSETCLOSURE0>:
     679:	4c 8b 7c 24 18       	mov    0x18(%rsp),%r15
     67e:	4d 89 cc             	mov    %r9,%r12
     681:	eb 95                	jmp    618 <__stubPUSH+0xe>

0000000000000683 <__stubPUSHOFFSETCLOSUREM3>:
     683:	4c 89 7d f8          	mov    %r15,-0x8(%rbp)
     687:	48 83 ed 08          	sub    $0x8,%rbp

000000000000068b <__stubOFFSETCLOSUREM3>:
     68b:	48 8b 44 24 18       	mov    0x18(%rsp),%rax
     690:	4d 89 cc             	mov    %r9,%r12
     693:	4c 8d 78 e8          	lea    -0x18(%rax),%r15
     697:	e9 7c ff ff ff       	jmpq   618 <__stubPUSH+0xe>

000000000000069c <__stubPUSHENVACC>:
     69c:	4c 89 7d f8          	mov    %r15,-0x8(%rbp)
     6a0:	48 83 ed 08          	sub    $0x8,%rbp

00000000000006a4 <__stubENVACC>:
     6a4:	49 63 44 24 04       	movslq 0x4(%r12),%rax
     6a9:	48 8b 7c 24 18       	mov    0x18(%rsp),%rdi
     6ae:	49 83 c4 08          	add    $0x8,%r12
     6b2:	4c 8b 3c c7          	mov    (%rdi,%rax,8),%r15
     6b6:	e9 5d ff ff ff       	jmpq   618 <__stubPUSH+0xe>

00000000000006bb <__stubPUSHCONSTINT>:
     6bb:	4c 89 7d f8          	mov    %r15,-0x8(%rbp)
     6bf:	48 83 ed 08          	sub    $0x8,%rbp

00000000000006c3 <__stubCONSTINT>:
     6c3:	49 63 44 24 04       	movslq 0x4(%r12),%rax
     6c8:	49 83 c4 08          	add    $0x8,%r12
     6cc:	4c 8d 7c 00 01       	lea    0x1(%rax,%rax,1),%r15
     6d1:	e9 42 ff ff ff       	jmpq   618 <__stubPUSH+0xe>

00000000000006d6 <__stubGETBYTESCHAR>:
     6d6:	48 8b 45 00          	mov    0x0(%rbp),%rax
     6da:	4d 89 cc             	mov    %r9,%r12
     6dd:	48 83 c5 08          	add    $0x8,%rbp
     6e1:	48 d1 f8             	sar    %rax
     6e4:	42 0f b6 04 38       	movzbl (%rax,%r15,1),%eax
     6e9:	4c 8d 7c 00 01       	lea    0x1(%rax,%rax,1),%r15
     6ee:	e9 25 ff ff ff       	jmpq   618 <__stubPUSH+0xe>

00000000000006f3 <__stubPUSHATOM>:
     6f3:	4c 89 7d f8          	mov    %r15,-0x8(%rbp)
     6f7:	48 83 ed 08          	sub    $0x8,%rbp

00000000000006fb <__stubATOM>:
     6fb:	41 8b 7c 24 04       	mov    0x4(%r12),%edi
     700:	49 8d 44 24 08       	lea    0x8(%r12),%rax
     705:	48 89 84 24 70 01 00 	mov    %rax,0x170(%rsp)
     70c:	00 
     70d:	e8 00 00 00 00       	callq  712 <__stubATOM+0x17>
     712:	4c 8b a4 24 70 01 00 	mov    0x170(%rsp),%r12
     719:	00 
     71a:	49 89 c7             	mov    %rax,%r15
     71d:	e9 f6 fe ff ff       	jmpq   618 <__stubPUSH+0xe>

0000000000000722 <__stubPUSHATOM0>:
     722:	4c 89 7d f8          	mov    %r15,-0x8(%rbp)
     726:	48 83 ed 08          	sub    $0x8,%rbp
     72a:	4c 89 8c 24 00 02 00 	mov    %r9,0x200(%rsp)
     731:	00 

0000000000000732 <__stubATOM0>:
     732:	31 ff                	xor    %edi,%edi
     734:	e8 00 00 00 00       	callq  739 <__stubATOM0+0x7>
     739:	4c 8b 8c 24 00 02 00 	mov    0x200(%rsp),%r9
     740:	00 
     741:	49 89 c7             	mov    %rax,%r15
     744:	4d 89 cc             	mov    %r9,%r12
     747:	e9 cc fe ff ff       	jmpq   618 <__stubPUSH+0xe>

000000000000074c <__stubPUSHGETGLOBALFIELD>:
     74c:	4c 89 7d f8          	mov    %r15,-0x8(%rbp)
     750:	48 83 ed 08          	sub    $0x8,%rbp

0000000000000754 <__stubGETGLOBALFIELD>:
     754:	48 8b 05 00 00 00 00 	mov    0x0(%rip),%rax        # 75b <__stubGETGLOBALFIELD+0x7>
     75b:	49 63 4c 24 04       	movslq 0x4(%r12),%rcx
     760:	49 83 c4 0c          	add    $0xc,%r12
     764:	49 63 54 24 fc       	movslq -0x4(%r12),%rdx
     769:	48 8b 04 c8          	mov    (%rax,%rcx,8),%rax
     76d:	4c 8b 3c d0          	mov    (%rax,%rdx,8),%r15
     771:	e9 a2 fe ff ff       	jmpq   618 <__stubPUSH+0xe>

0000000000000776 <__stubPUSHGETGLOBAL>:
     776:	4c 89 7d f8          	mov    %r15,-0x8(%rbp)
     77a:	48 83 ed 08          	sub    $0x8,%rbp

000000000000077e <__stubGETGLOBAL>:
     77e:	48 8b 05 00 00 00 00 	mov    0x0(%rip),%rax        # 785 <__stubGETGLOBAL+0x7>
     785:	49 63 54 24 04       	movslq 0x4(%r12),%rdx
     78a:	49 83 c4 08          	add    $0x8,%r12
     78e:	4c 8b 3c d0          	mov    (%rax,%rdx,8),%r15
     792:	e9 81 fe ff ff       	jmpq   618 <__stubPUSH+0xe>
     797:	48 8d 35 00 00 00 00 	lea    0x0(%rip),%rsi        # 79e <__stubGETGLOBAL+0x20>
     79e:	31 c9                	xor    %ecx,%ecx
     7a0:	ba 03 00 00 00       	mov    $0x3,%edx
     7a5:	41 bf 01 00 00 00    	mov    $0x1,%r15d
     7ab:	48 8d 7e f4          	lea    -0xc(%rsi),%rdi
     7af:	48 8d 1d 00 00 00 00 	lea    0x0(%rip),%rbx        # 7b6 <__stubGETGLOBAL+0x38>
     7b6:	e8 00 00 00 00       	callq  7bb <__stubGETGLOBAL+0x3d>
     7bb:	be f7 00 00 00       	mov    $0xf7,%esi
     7c0:	bf 02 00 00 00       	mov    $0x2,%edi
     7c5:	e8 00 00 00 00       	callq  7ca <__stubGETGLOBAL+0x4c>
     7ca:	48 8d 3d 00 00 00 00 	lea    0x0(%rip),%rdi        # 7d1 <__stubGETGLOBAL+0x53>
     7d1:	48 89 18             	mov    %rbx,(%rax)
     7d4:	48 c7 40 08 05 00 00 	movq   $0x5,0x8(%rax)
     7db:	00 
     7dc:	48 89 05 00 00 00 00 	mov    %rax,0x0(%rip)        # 7e3 <__stubGETGLOBAL+0x65>
     7e3:	e8 00 00 00 00       	callq  7e8 <__stubGETGLOBAL+0x6a>
     7e8:	48 8d 3d 00 00 00 00 	lea    0x0(%rip),%rdi        # 7ef <__stubGETGLOBAL+0x71>
     7ef:	48 c7 05 00 00 00 00 	movq   $0x1,0x0(%rip)        # 7fa <__stubGETGLOBAL+0x7c>
     7f6:	01 00 00 00 
     7fa:	e8 00 00 00 00       	callq  7ff <__stubGETGLOBAL+0x81>
     7ff:	e8 00 00 00 00       	callq  804 <__stubGETGLOBAL+0x86>
     804:	48 8b 84 24 f8 03 00 	mov    0x3f8(%rsp),%rax
     80b:	00 
     80c:	64 48 33 04 25 28 00 	xor    %fs:0x28,%rax
     813:	00 00 
     815:	0f 85 d2 27 00 00    	jne    2fed <__stubDIVINT+0x9c4>
     81b:	48 81 c4 08 04 00 00 	add    $0x408,%rsp
     822:	4c 89 f8             	mov    %r15,%rax
     825:	5b                   	pop    %rbx
     826:	5d                   	pop    %rbp
     827:	41 5c                	pop    %r12
     829:	41 5d                	pop    %r13
     82b:	41 5e                	pop    %r14
     82d:	41 5f                	pop    %r15
     82f:	c3                   	retq   
     830:	48 8d 15 00 00 00 00 	lea    0x0(%rip),%rdx        # 837 <__stubGETGLOBAL+0xb9>
     837:	48 8d 35 00 00 00 00 	lea    0x0(%rip),%rsi        # 83e <__stubGETGLOBAL+0xc0>
     83e:	31 c0                	xor    %eax,%eax
     840:	bf 01 00 00 00       	mov    $0x1,%edi
     845:	4c 89 84 24 b8 00 00 	mov    %r8,0xb8(%rsp)
     84c:	00 
     84d:	e8 00 00 00 00       	callq  852 <__stubGETGLOBAL+0xd4>
     852:	48 8b 44 24 48       	mov    0x48(%rsp),%rax
     857:	4c 8b 84 24 b8 00 00 	mov    0xb8(%rsp),%r8
     85e:	00 
     85f:	48 8b 50 20          	mov    0x20(%rax),%rdx
     863:	48 8b 00             	mov    (%rax),%rax
     866:	48 8b 74 d0 f8       	mov    -0x8(%rax,%rdx,8),%rsi
     86b:	48 85 f6             	test   %rsi,%rsi
     86e:	0f 85 05 fc ff ff    	jne    479 <__stubCHECK_SIGNALS+0x2e9>
     874:	e9 4c fc ff ff       	jmpq   4c5 <__stubCHECK_SIGNALS+0x335>
     879:	0f 1f 80 00 00 00 00 	nopl   0x0(%rax)
     880:	48 8b 44 24 08       	mov    0x8(%rsp),%rax
     885:	48 8b 74 24 60       	mov    0x60(%rsp),%rsi
     88a:	48 83 cb 02          	or     $0x2,%rbx
     88e:	49 89 df             	mov    %rbx,%r15
     891:	48 89 b0 e8 01 00 00 	mov    %rsi,0x1e8(%rax)
     898:	48 8b 74 24 68       	mov    0x68(%rsp),%rsi
     89d:	48 89 b0 d8 01 00 00 	mov    %rsi,0x1d8(%rax)
     8a4:	48 63 44 24 70       	movslq 0x70(%rsp),%rax
     8a9:	48 8b 77 10          	mov    0x10(%rdi),%rsi
     8ad:	48 c1 e0 03          	shl    $0x3,%rax
     8b1:	48 29 c6             	sub    %rax,%rsi
     8b4:	48 89 37             	mov    %rsi,(%rdi)
     8b7:	e9 48 ff ff ff       	jmpq   804 <__stubGETGLOBAL+0x86>
     8bc:	4d 89 e5             	mov    %r12,%r13

00000000000008bf <__stubREPERFORMTERM>:
     8bf:	48 8b 55 08          	mov    0x8(%rbp),%rdx
     8c3:	48 8b 7d 00          	mov    0x0(%rbp),%rdi
     8c7:	f6 c2 01             	test   $0x1,%dl
     8ca:	0f 84 5d 26 00 00    	je     2f2d <__stubDIVINT+0x904>
     8d0:	48 8b 5c 24 08       	mov    0x8(%rsp),%rbx
     8d5:	49 63 75 04          	movslq 0x4(%r13),%rsi
     8d9:	48 83 ea 01          	sub    $0x1,%rdx
     8dd:	48 8b 4b 20          	mov    0x20(%rbx),%rcx
     8e1:	4c 8d 74 f5 f0       	lea    -0x10(%rbp,%rsi,8),%r14
     8e6:	48 8b b3 d8 01 00 00 	mov    0x1d8(%rbx),%rsi
     8ed:	48 8b 41 10          	mov    0x10(%rcx),%rax
     8f1:	48 8d 74 36 01       	lea    0x1(%rsi,%rsi,1),%rsi
     8f6:	48 8b 40 18          	mov    0x18(%rax),%rax
     8fa:	49 89 36             	mov    %rsi,(%r14)
     8fd:	4d 89 46 08          	mov    %r8,0x8(%r14)
     901:	48 85 c0             	test   %rax,%rax
     904:	0f 84 76 24 00 00    	je     2d80 <__stubDIVINT+0x757>
     90a:	48 8b 5c 24 08       	mov    0x8(%rsp),%rbx
     90f:	4c 89 31             	mov    %r14,(%rcx)
     912:	48 89 43 20          	mov    %rax,0x20(%rbx)
     916:	48 8b 72 10          	mov    0x10(%rdx),%rsi
     91a:	48 8b 00             	mov    (%rax),%rax
     91d:	48 83 7e 18 00       	cmpq   $0x0,0x18(%rsi)
     922:	0f 85 ed 25 00 00    	jne    2f15 <__stubDIVINT+0x8ec>
     928:	48 8b 71 10          	mov    0x10(%rcx),%rsi
     92c:	48 8b 5c 24 08       	mov    0x8(%rsp),%rbx
     931:	48 8d 68 f8          	lea    -0x8(%rax),%rbp
     935:	48 c7 46 18 00 00 00 	movq   $0x0,0x18(%rsi)
     93c:	00 
     93d:	48 8b 52 10          	mov    0x10(%rdx),%rdx
     941:	48 89 4a 18          	mov    %rcx,0x18(%rdx)
     945:	48 8b 10             	mov    (%rax),%rdx
     948:	48 d1 fa             	sar    %rdx
     94b:	48 89 93 d8 01 00 00 	mov    %rdx,0x1d8(%rbx)
     952:	48 8b 50 08          	mov    0x8(%rax),%rdx
     956:	4c 89 78 f8          	mov    %r15,-0x8(%rax)
     95a:	48 89 38             	mov    %rdi,(%rax)
     95d:	48 d1 fa             	sar    %rdx
     960:	f6 c1 01             	test   $0x1,%cl
     963:	0f 85 94 25 00 00    	jne    2efd <__stubDIVINT+0x8d4>
     969:	48 8d 71 01          	lea    0x1(%rcx),%rsi
     96d:	4c 8d 72 02          	lea    0x2(%rdx),%r14
     971:	48 89 70 08          	mov    %rsi,0x8(%rax)
     975:	48 8b 41 10          	mov    0x10(%rcx),%rax
     979:	4c 8b 78 10          	mov    0x10(%rax),%r15
     97d:	4d 8b 2f             	mov    (%r15),%r13
     980:	e9 ed f7 ff ff       	jmpq   172 <caml_interprete+0x172>

0000000000000985 <__stubACC0>:
     985:	4c 8b 7d 00          	mov    0x0(%rbp),%r15
     989:	4d 89 cc             	mov    %r9,%r12
     98c:	e9 87 fc ff ff       	jmpq   618 <__stubPUSH+0xe>

0000000000000991 <__stubACC1>:
     991:	4c 8b 7d 08          	mov    0x8(%rbp),%r15
     995:	4d 89 cc             	mov    %r9,%r12
     998:	e9 7b fc ff ff       	jmpq   618 <__stubPUSH+0xe>

000000000000099d <__stubACC2>:
     99d:	4c 8b 7d 10          	mov    0x10(%rbp),%r15
     9a1:	4d 89 cc             	mov    %r9,%r12
     9a4:	e9 6f fc ff ff       	jmpq   618 <__stubPUSH+0xe>
     9a9:	4d 89 e5             	mov    %r12,%r13

00000000000009ac <__stubRESUMETERM>:
     9ac:	49 63 44 24 04       	movslq 0x4(%r12),%rax
     9b1:	48 8b 75 00          	mov    0x0(%rbp),%rsi
     9b5:	48 8b 7d 08          	mov    0x8(%rbp),%rdi
     9b9:	4c 8d 74 c5 f0       	lea    -0x10(%rbp,%rax,8),%r14
     9be:	48 8b 44 24 08       	mov    0x8(%rsp),%rax
     9c3:	48 8b 80 d8 01 00 00 	mov    0x1d8(%rax),%rax
     9ca:	4d 89 46 08          	mov    %r8,0x8(%r14)
     9ce:	48 8d 44 00 01       	lea    0x1(%rax,%rax,1),%rax
     9d3:	49 89 06             	mov    %rax,(%r14)
     9d6:	48 8b 44 24 10       	mov    0x10(%rsp),%rax
     9db:	48 89 44 24 20       	mov    %rax,0x20(%rsp)
     9e0:	41 f6 c7 01          	test   $0x1,%r15b
     9e4:	0f 84 43 25 00 00    	je     2f2d <__stubDIVINT+0x904>
     9ea:	49 8d 4f ff          	lea    -0x1(%r15),%rcx
     9ee:	48 89 c8             	mov    %rcx,%rax
     9f1:	49 83 ff 01          	cmp    $0x1,%r15
     9f5:	0f 84 98 1d 00 00    	je     2793 <__stubDIVINT+0x16a>
     9fb:	48 8b 50 10          	mov    0x10(%rax),%rdx
     9ff:	48 8b 42 18          	mov    0x18(%rdx),%rax
     a03:	48 85 c0             	test   %rax,%rax
     a06:	75 f3                	jne    9fb <__stubRESUMETERM+0x4f>
     a08:	48 8b 05 00 00 00 00 	mov    0x0(%rip),%rax        # a0f <__stubRESUMETERM+0x63>
     a0f:	48 8b 5c 24 08       	mov    0x8(%rsp),%rbx
     a14:	49 89 f7             	mov    %rsi,%r15
     a17:	64 48 8b 00          	mov    %fs:(%rax),%rax
     a1b:	48 8b 40 20          	mov    0x20(%rax),%rax
     a1f:	48 89 42 18          	mov    %rax,0x18(%rdx)
     a23:	48 8b 43 20          	mov    0x20(%rbx),%rax
     a27:	4c 89 30             	mov    %r14,(%rax)
     a2a:	45 31 f6             	xor    %r14d,%r14d
     a2d:	48 89 4b 20          	mov    %rcx,0x20(%rbx)
     a31:	48 8b 29             	mov    (%rcx),%rbp
     a34:	48 8b 45 00          	mov    0x0(%rbp),%rax
     a38:	48 d1 f8             	sar    %rax
     a3b:	48 89 83 d8 01 00 00 	mov    %rax,0x1d8(%rbx)
     a42:	48 89 7d 00          	mov    %rdi,0x0(%rbp)
     a46:	4c 8b 2e             	mov    (%rsi),%r13
     a49:	e9 24 f7 ff ff       	jmpq   172 <caml_interprete+0x172>

0000000000000a4e <__stubRAISE_NOTRACE>:
     a4e:	48 8b 7c 24 08       	mov    0x8(%rsp),%rdi
     a53:	4c 89 fb             	mov    %r15,%rbx
     a56:	48 8b 87 d8 01 00 00 	mov    0x1d8(%rdi),%rax
     a5d:	49 89 ff             	mov    %rdi,%r15
     a60:	48 3b 87 e0 01 00 00 	cmp    0x1e0(%rdi),%rax
     a67:	0f 8c a7 f6 ff ff    	jl     114 <caml_interprete+0x114>
     a6d:	be 01 00 00 00       	mov    $0x1,%esi
     a72:	bf 04 00 00 00       	mov    $0x4,%edi
     a77:	e8 00 00 00 00       	callq  a7c <__stubRAISE_NOTRACE+0x2e>
     a7c:	49 8b 87 d8 01 00 00 	mov    0x1d8(%r15),%rax
     a83:	e9 8c f6 ff ff       	jmpq   114 <caml_interprete+0x114>
     a88:	4d 89 e5             	mov    %r12,%r13

0000000000000a8b <__stubPERFORM>:
     a8b:	48 8b 44 24 08       	mov    0x8(%rsp),%rax
     a90:	48 8b 78 20          	mov    0x20(%rax),%rdi
     a94:	48 8b 47 10          	mov    0x10(%rdi),%rax
     a98:	4c 8b 70 18          	mov    0x18(%rax),%r14
     a9c:	4d 85 f6             	test   %r14,%r14
     a9f:	0f 84 13 22 00 00    	je     2cb8 <__stubDIVINT+0x68f>
     aa5:	48 8b 05 00 00 00 00 	mov    0x0(%rip),%rax        # aac <__stubPERFORM+0x21>
     aac:	49 89 ed             	mov    %rbp,%r13
     aaf:	4c 89 fe             	mov    %r15,%rsi
     ab2:	4c 89 cd             	mov    %r9,%rbp
     ab5:	4d 89 c7             	mov    %r8,%r15
     ab8:	49 89 fc             	mov    %rdi,%r12
     abb:	64 48 8b 18          	mov    %fs:(%rax),%rbx
     abf:	48 83 6b 08 10       	subq   $0x10,0x8(%rbx)
     ac4:	48 89 b4 24 f8 02 00 	mov    %rsi,0x2f8(%rsp)
     acb:	00 
     acc:	e8 00 00 00 00       	callq  ad1 <__stubPERFORM+0x46>
     ad1:	48 8b 43 08          	mov    0x8(%rbx),%rax
     ad5:	48 8b 3b             	mov    (%rbx),%rdi
     ad8:	48 8b b4 24 f8 02 00 	mov    0x2f8(%rsp),%rsi
     adf:	00 
     ae0:	48 39 f8             	cmp    %rdi,%rax
     ae3:	0f 82 7e 21 00 00    	jb     2c67 <__stubDIVINT+0x63e>
     ae9:	48 c7 00 f5 04 00 00 	movq   $0x4f5,(%rax)
     af0:	48 8b 53 08          	mov    0x8(%rbx),%rdx
     af4:	4c 89 e7             	mov    %r12,%rdi
     af7:	48 b8 d7 d6 10 d7 d7 	movabs $0xd710d7d7d710d6d7,%rax
     afe:	d7 10 d7 
     b01:	48 8b 5c 24 08       	mov    0x8(%rsp),%rbx
     b06:	4d 89 fc             	mov    %r15,%r12
     b09:	49 89 f7             	mov    %rsi,%r15
     b0c:	48 89 42 08          	mov    %rax,0x8(%rdx)
     b10:	48 8d 72 08          	lea    0x8(%rdx),%rsi
     b14:	48 8b 83 d8 01 00 00 	mov    0x1d8(%rbx),%rax
     b1b:	49 89 6d e8          	mov    %rbp,-0x18(%r13)
     b1f:	4d 89 65 f8          	mov    %r12,-0x8(%r13)
     b23:	48 8d 44 00 01       	lea    0x1(%rax,%rax,1),%rax
     b28:	49 89 45 e0          	mov    %rax,-0x20(%r13)
     b2c:	48 8b 44 24 18       	mov    0x18(%rsp),%rax
     b31:	49 89 45 f0          	mov    %rax,-0x10(%r13)
     b35:	49 8d 45 e0          	lea    -0x20(%r13),%rax
     b39:	48 89 07             	mov    %rax,(%rdi)
     b3c:	4c 89 73 20          	mov    %r14,0x20(%rbx)
     b40:	48 8b 4f 10          	mov    0x10(%rdi),%rcx
     b44:	49 8b 06             	mov    (%r14),%rax
     b47:	48 c7 41 18 00 00 00 	movq   $0x0,0x18(%rcx)
     b4e:	00 
     b4f:	40 f6 c7 01          	test   $0x1,%dil
     b53:	0f 85 a4 23 00 00    	jne    2efd <__stubDIVINT+0x8d4>
     b59:	48 8d 4f 01          	lea    0x1(%rdi),%rcx
     b5d:	48 8b 5c 24 08       	mov    0x8(%rsp),%rbx
     b62:	48 8d 68 f8          	lea    -0x8(%rax),%rbp
     b66:	48 89 4a 08          	mov    %rcx,0x8(%rdx)
     b6a:	48 8b 10             	mov    (%rax),%rdx
     b6d:	48 d1 fa             	sar    %rdx
     b70:	48 89 93 d8 01 00 00 	mov    %rdx,0x1d8(%rbx)
     b77:	48 8b 50 08          	mov    0x8(%rax),%rdx
     b7b:	4c 89 78 f8          	mov    %r15,-0x8(%rax)
     b7f:	48 89 30             	mov    %rsi,(%rax)
     b82:	48 d1 fa             	sar    %rdx
     b85:	48 89 48 08          	mov    %rcx,0x8(%rax)
     b89:	48 8b 47 10          	mov    0x10(%rdi),%rax
     b8d:	4c 8d 72 02          	lea    0x2(%rdx),%r14
     b91:	4c 8b 78 10          	mov    0x10(%rax),%r15
     b95:	4d 8b 2f             	mov    (%r15),%r13
     b98:	e9 d5 f5 ff ff       	jmpq   172 <caml_interprete+0x172>
     b9d:	4d 89 e5             	mov    %r12,%r13

0000000000000ba0 <__stubRESUME>:
     ba0:	48 8b 44 24 08       	mov    0x8(%rsp),%rax
     ba5:	48 8b 75 00          	mov    0x0(%rbp),%rsi
     ba9:	4c 8d 75 e8          	lea    -0x18(%rbp),%r14
     bad:	48 8b 7d 08          	mov    0x8(%rbp),%rdi
     bb1:	48 8b 80 d8 01 00 00 	mov    0x1d8(%rax),%rax
     bb8:	48 c7 45 f0 01 00 00 	movq   $0x1,-0x10(%rbp)
     bbf:	00 
     bc0:	4c 89 4d f8          	mov    %r9,-0x8(%rbp)
     bc4:	48 8d 44 00 01       	lea    0x1(%rax,%rax,1),%rax
     bc9:	4c 89 45 08          	mov    %r8,0x8(%rbp)
     bcd:	48 89 45 e8          	mov    %rax,-0x18(%rbp)
     bd1:	48 8b 44 24 18       	mov    0x18(%rsp),%rax
     bd6:	48 89 45 00          	mov    %rax,0x0(%rbp)
     bda:	48 8b 44 24 10       	mov    0x10(%rsp),%rax
     bdf:	48 89 44 24 20       	mov    %rax,0x20(%rsp)
     be4:	e9 f7 fd ff ff       	jmpq   9e0 <__stubRESUMETERM+0x34>

0000000000000be9 <__stubPUSHACC1>:
     be9:	4c 89 7d f8          	mov    %r15,-0x8(%rbp)
     bed:	4d 89 cc             	mov    %r9,%r12
     bf0:	4c 8b 7d 00          	mov    0x0(%rbp),%r15
     bf4:	48 83 ed 08          	sub    $0x8,%rbp
     bf8:	e9 1b fa ff ff       	jmpq   618 <__stubPUSH+0xe>

0000000000000bfd <__stubPUSHACC2>:
     bfd:	4c 89 7d f8          	mov    %r15,-0x8(%rbp)
     c01:	4d 89 cc             	mov    %r9,%r12
     c04:	4c 8b 7d 08          	mov    0x8(%rbp),%r15
     c08:	48 83 ed 08          	sub    $0x8,%rbp
     c0c:	e9 07 fa ff ff       	jmpq   618 <__stubPUSH+0xe>

0000000000000c11 <__stubPUSHACC3>:
     c11:	4c 89 7d f8          	mov    %r15,-0x8(%rbp)
     c15:	4d 89 cc             	mov    %r9,%r12
     c18:	4c 8b 7d 10          	mov    0x10(%rbp),%r15
     c1c:	48 83 ed 08          	sub    $0x8,%rbp
     c20:	e9 f3 f9 ff ff       	jmpq   618 <__stubPUSH+0xe>

0000000000000c25 <__stubPUSHACC4>:
     c25:	4c 89 7d f8          	mov    %r15,-0x8(%rbp)
     c29:	4d 89 cc             	mov    %r9,%r12
     c2c:	4c 8b 7d 18          	mov    0x18(%rbp),%r15
     c30:	48 83 ed 08          	sub    $0x8,%rbp
     c34:	e9 df f9 ff ff       	jmpq   618 <__stubPUSH+0xe>

0000000000000c39 <__stubPUSHACC5>:
     c39:	4c 89 7d f8          	mov    %r15,-0x8(%rbp)
     c3d:	4d 89 cc             	mov    %r9,%r12
     c40:	4c 8b 7d 20          	mov    0x20(%rbp),%r15
     c44:	48 83 ed 08          	sub    $0x8,%rbp
     c48:	e9 cb f9 ff ff       	jmpq   618 <__stubPUSH+0xe>

0000000000000c4d <__stubPUSHACC6>:
     c4d:	4c 89 7d f8          	mov    %r15,-0x8(%rbp)
     c51:	4d 89 cc             	mov    %r9,%r12
     c54:	4c 8b 7d 28          	mov    0x28(%rbp),%r15
     c58:	48 83 ed 08          	sub    $0x8,%rbp
     c5c:	e9 b7 f9 ff ff       	jmpq   618 <__stubPUSH+0xe>

0000000000000c61 <__stubPUSHACC7>:
     c61:	4c 89 7d f8          	mov    %r15,-0x8(%rbp)
     c65:	4d 89 cc             	mov    %r9,%r12
     c68:	4c 8b 7d 30          	mov    0x30(%rbp),%r15
     c6c:	48 83 ed 08          	sub    $0x8,%rbp
     c70:	e9 a3 f9 ff ff       	jmpq   618 <__stubPUSH+0xe>

0000000000000c75 <__stubACC3>:
     c75:	4c 8b 7d 18          	mov    0x18(%rbp),%r15
     c79:	4d 89 cc             	mov    %r9,%r12
     c7c:	e9 97 f9 ff ff       	jmpq   618 <__stubPUSH+0xe>

0000000000000c81 <__stubACC4>:
     c81:	4c 8b 7d 20          	mov    0x20(%rbp),%r15
     c85:	4d 89 cc             	mov    %r9,%r12
     c88:	e9 8b f9 ff ff       	jmpq   618 <__stubPUSH+0xe>

0000000000000c8d <__stubACC5>:
     c8d:	4c 8b 7d 28          	mov    0x28(%rbp),%r15
     c91:	4d 89 cc             	mov    %r9,%r12
     c94:	e9 7f f9 ff ff       	jmpq   618 <__stubPUSH+0xe>

0000000000000c99 <__stubACC6>:
     c99:	4c 8b 7d 30          	mov    0x30(%rbp),%r15
     c9d:	4d 89 cc             	mov    %r9,%r12
     ca0:	e9 73 f9 ff ff       	jmpq   618 <__stubPUSH+0xe>

0000000000000ca5 <__stubANDINT>:
     ca5:	4c 23 7d 00          	and    0x0(%rbp),%r15
     ca9:	4d 89 cc             	mov    %r9,%r12
     cac:	48 83 c5 08          	add    $0x8,%rbp
     cb0:	e9 63 f9 ff ff       	jmpq   618 <__stubPUSH+0xe>

0000000000000cb5 <__stubORINT>:
     cb5:	4c 0b 7d 00          	or     0x0(%rbp),%r15
     cb9:	4d 89 cc             	mov    %r9,%r12
     cbc:	48 83 c5 08          	add    $0x8,%rbp
     cc0:	e9 53 f9 ff ff       	jmpq   618 <__stubPUSH+0xe>

0000000000000cc5 <__stubXORINT>:
     cc5:	4c 33 7d 00          	xor    0x0(%rbp),%r15
     cc9:	4d 89 cc             	mov    %r9,%r12
     ccc:	48 83 c5 08          	add    $0x8,%rbp
     cd0:	49 83 cf 01          	or     $0x1,%r15
     cd4:	e9 3f f9 ff ff       	jmpq   618 <__stubPUSH+0xe>

0000000000000cd9 <__stubLSLINT>:
     cd9:	48 8b 4d 00          	mov    0x0(%rbp),%rcx
     cdd:	49 83 ef 01          	sub    $0x1,%r15
     ce1:	48 83 c5 08          	add    $0x8,%rbp
     ce5:	4d 89 cc             	mov    %r9,%r12
     ce8:	48 d1 f9             	sar    %rcx
     ceb:	49 d3 e7             	shl    %cl,%r15
     cee:	49 83 c7 01          	add    $0x1,%r15
     cf2:	e9 21 f9 ff ff       	jmpq   618 <__stubPUSH+0xe>

0000000000000cf7 <__stubLSRINT>:
     cf7:	48 8b 4d 00          	mov    0x0(%rbp),%rcx
     cfb:	4d 89 cc             	mov    %r9,%r12
     cfe:	48 83 c5 08          	add    $0x8,%rbp
     d02:	48 d1 f9             	sar    %rcx
     d05:	49 d3 ef             	shr    %cl,%r15
     d08:	49 83 cf 01          	or     $0x1,%r15
     d0c:	e9 07 f9 ff ff       	jmpq   618 <__stubPUSH+0xe>

0000000000000d11 <__stubASRINT>:
     d11:	48 8b 4d 00          	mov    0x0(%rbp),%rcx
     d15:	4d 89 cc             	mov    %r9,%r12
     d18:	48 83 c5 08          	add    $0x8,%rbp
     d1c:	48 d1 f9             	sar    %rcx
     d1f:	49 d3 ff             	sar    %cl,%r15
     d22:	49 83 cf 01          	or     $0x1,%r15
     d26:	e9 ed f8 ff ff       	jmpq   618 <__stubPUSH+0xe>
     d2b:	4c 39 7d 00          	cmp    %r15,0x0(%rbp)
     d2f:	48 8d 45 08          	lea    0x8(%rbp),%rax
     d33:	4d 89 cc             	mov    %r9,%r12
     d36:	41 bf 01 00 00 00    	mov    $0x1,%r15d
     d3c:	48 89 c5             	mov    %rax,%rbp
     d3f:	0f 85 d3 f8 ff ff    	jne    618 <__stubPUSH+0xe>
     d45:	41 bf 03 00 00 00    	mov    $0x3,%r15d
     d4b:	e9 c8 f8 ff ff       	jmpq   618 <__stubPUSH+0xe>
     d50:	4c 39 7d 00          	cmp    %r15,0x0(%rbp)
     d54:	48 8d 45 08          	lea    0x8(%rbp),%rax
     d58:	4d 89 cc             	mov    %r9,%r12
     d5b:	41 bf 01 00 00 00    	mov    $0x1,%r15d
     d61:	48 89 c5             	mov    %rax,%rbp
     d64:	0f 84 ae f8 ff ff    	je     618 <__stubPUSH+0xe>
     d6a:	41 bf 03 00 00 00    	mov    $0x3,%r15d
     d70:	e9 a3 f8 ff ff       	jmpq   618 <__stubPUSH+0xe>
     d75:	4c 39 7d 00          	cmp    %r15,0x0(%rbp)
     d79:	48 8d 45 08          	lea    0x8(%rbp),%rax
     d7d:	4d 89 cc             	mov    %r9,%r12
     d80:	41 bf 01 00 00 00    	mov    $0x1,%r15d
     d86:	48 89 c5             	mov    %rax,%rbp
     d89:	0f 8e 89 f8 ff ff    	jle    618 <__stubPUSH+0xe>
     d8f:	41 bf 03 00 00 00    	mov    $0x3,%r15d
     d95:	e9 7e f8 ff ff       	jmpq   618 <__stubPUSH+0xe>
     d9a:	4c 39 7d 00          	cmp    %r15,0x0(%rbp)
     d9e:	48 8d 45 08          	lea    0x8(%rbp),%rax
     da2:	4d 89 cc             	mov    %r9,%r12
     da5:	41 bf 01 00 00 00    	mov    $0x1,%r15d
     dab:	48 89 c5             	mov    %rax,%rbp
     dae:	0f 8c 64 f8 ff ff    	jl     618 <__stubPUSH+0xe>
     db4:	41 bf 03 00 00 00    	mov    $0x3,%r15d
     dba:	e9 59 f8 ff ff       	jmpq   618 <__stubPUSH+0xe>
     dbf:	4c 39 7d 00          	cmp    %r15,0x0(%rbp)
     dc3:	48 8d 45 08          	lea    0x8(%rbp),%rax
     dc7:	4d 89 cc             	mov    %r9,%r12
     dca:	41 bf 01 00 00 00    	mov    $0x1,%r15d
     dd0:	48 89 c5             	mov    %rax,%rbp
     dd3:	0f 8d 3f f8 ff ff    	jge    618 <__stubPUSH+0xe>
     dd9:	41 bf 03 00 00 00    	mov    $0x3,%r15d
     ddf:	e9 34 f8 ff ff       	jmpq   618 <__stubPUSH+0xe>
     de4:	4c 39 7d 00          	cmp    %r15,0x0(%rbp)
     de8:	48 8d 45 08          	lea    0x8(%rbp),%rax
     dec:	4d 89 cc             	mov    %r9,%r12
     def:	41 bf 01 00 00 00    	mov    $0x1,%r15d
     df5:	48 89 c5             	mov    %rax,%rbp
     df8:	0f 8f 1a f8 ff ff    	jg     618 <__stubPUSH+0xe>
     dfe:	41 bf 03 00 00 00    	mov    $0x3,%r15d
     e04:	e9 0f f8 ff ff       	jmpq   618 <__stubPUSH+0xe>

0000000000000e09 <__stubOFFSETINT>:
     e09:	41 8b 44 24 04       	mov    0x4(%r12),%eax
     e0e:	49 83 c4 08          	add    $0x8,%r12
     e12:	01 c0                	add    %eax,%eax
     e14:	48 98                	cltq   
     e16:	49 01 c7             	add    %rax,%r15
     e19:	e9 fa f7 ff ff       	jmpq   618 <__stubPUSH+0xe>

0000000000000e1e <__stubOFFSETREF>:
     e1e:	41 8b 44 24 04       	mov    0x4(%r12),%eax
     e23:	49 83 c4 08          	add    $0x8,%r12
     e27:	01 c0                	add    %eax,%eax
     e29:	48 98                	cltq   
     e2b:	49 01 07             	add    %rax,(%r15)
     e2e:	41 bf 01 00 00 00    	mov    $0x1,%r15d
     e34:	e9 df f7 ff ff       	jmpq   618 <__stubPUSH+0xe>

0000000000000e39 <__stubISINT>:
     e39:	4d 01 ff             	add    %r15,%r15
     e3c:	4d 89 cc             	mov    %r9,%r12
     e3f:	41 83 e7 02          	and    $0x2,%r15d
     e43:	49 83 c7 01          	add    $0x1,%r15
     e47:	e9 cc f7 ff ff       	jmpq   618 <__stubPUSH+0xe>

0000000000000e4c <__stubGETMETHOD>:
     e4c:	48 8b 55 00          	mov    0x0(%rbp),%rdx
     e50:	4c 89 f8             	mov    %r15,%rax
     e53:	4d 89 cc             	mov    %r9,%r12
     e56:	48 d1 f8             	sar    %rax
     e59:	48 8b 12             	mov    (%rdx),%rdx
     e5c:	48 98                	cltq   
     e5e:	4c 8b 3c c2          	mov    (%rdx,%rax,8),%r15
     e62:	e9 b1 f7 ff ff       	jmpq   618 <__stubPUSH+0xe>
     e67:	4c 89 f8             	mov    %r15,%rax
     e6a:	49 63 54 24 04       	movslq 0x4(%r12),%rdx
     e6f:	48 d1 f8             	sar    %rax
     e72:	48 39 c2             	cmp    %rax,%rdx
     e75:	0f 84 2d 1a 00 00    	je     28a8 <__stubDIVINT+0x27f>
     e7b:	49 83 c4 0c          	add    $0xc,%r12
     e7f:	e9 94 f7 ff ff       	jmpq   618 <__stubPUSH+0xe>
     e84:	4c 89 f8             	mov    %r15,%rax
     e87:	49 63 54 24 04       	movslq 0x4(%r12),%rdx
     e8c:	48 d1 f8             	sar    %rax
     e8f:	48 39 c2             	cmp    %rax,%rdx
     e92:	0f 84 07 1a 00 00    	je     289f <__stubDIVINT+0x276>
     e98:	49 63 44 24 08       	movslq 0x8(%r12),%rax
     e9d:	4d 8d 64 84 08       	lea    0x8(%r12,%rax,4),%r12
     ea2:	e9 71 f7 ff ff       	jmpq   618 <__stubPUSH+0xe>
     ea7:	4c 89 f8             	mov    %r15,%rax
     eaa:	49 63 54 24 04       	movslq 0x4(%r12),%rdx
     eaf:	48 d1 f8             	sar    %rax
     eb2:	48 39 c2             	cmp    %rax,%rdx
     eb5:	0f 8f d2 19 00 00    	jg     288d <__stubDIVINT+0x264>
     ebb:	49 63 44 24 08       	movslq 0x8(%r12),%rax
     ec0:	4d 8d 64 84 08       	lea    0x8(%r12,%rax,4),%r12
     ec5:	e9 4e f7 ff ff       	jmpq   618 <__stubPUSH+0xe>
     eca:	4c 89 f8             	mov    %r15,%rax
     ecd:	49 63 54 24 04       	movslq 0x4(%r12),%rdx
     ed2:	48 d1 f8             	sar    %rax
     ed5:	48 39 c2             	cmp    %rax,%rdx
     ed8:	0f 8d b8 19 00 00    	jge    2896 <__stubDIVINT+0x26d>
     ede:	49 63 44 24 08       	movslq 0x8(%r12),%rax
     ee3:	4d 8d 64 84 08       	lea    0x8(%r12,%rax,4),%r12
     ee8:	e9 2b f7 ff ff       	jmpq   618 <__stubPUSH+0xe>
     eed:	4c 89 f8             	mov    %r15,%rax
     ef0:	49 63 54 24 04       	movslq 0x4(%r12),%rdx
     ef5:	48 d1 f8             	sar    %rax
     ef8:	48 39 c2             	cmp    %rax,%rdx
     efb:	0f 8e 64 19 00 00    	jle    2865 <__stubDIVINT+0x23c>
     f01:	49 63 44 24 08       	movslq 0x8(%r12),%rax
     f06:	4d 8d 64 84 08       	lea    0x8(%r12,%rax,4),%r12
     f0b:	e9 08 f7 ff ff       	jmpq   618 <__stubPUSH+0xe>
     f10:	4c 89 f8             	mov    %r15,%rax
     f13:	49 63 54 24 04       	movslq 0x4(%r12),%rdx
     f18:	48 d1 f8             	sar    %rax
     f1b:	48 39 c2             	cmp    %rax,%rdx
     f1e:	0f 8c 96 18 00 00    	jl     27ba <__stubDIVINT+0x191>
     f24:	49 63 44 24 08       	movslq 0x8(%r12),%rax
     f29:	4d 8d 64 84 08       	lea    0x8(%r12,%rax,4),%r12
     f2e:	e9 e5 f6 ff ff       	jmpq   618 <__stubPUSH+0xe>

0000000000000f33 <__stubBOOLNOT>:
     f33:	b8 04 00 00 00       	mov    $0x4,%eax
     f38:	4d 89 cc             	mov    %r9,%r12
     f3b:	4c 29 f8             	sub    %r15,%rax
     f3e:	49 89 c7             	mov    %rax,%r15
     f41:	e9 d2 f6 ff ff       	jmpq   618 <__stubPUSH+0xe>

0000000000000f46 <__stubEVENT>:
     f46:	48 83 2d 00 00 00 00 	subq   $0x1,0x0(%rip)        # f4e <__stubEVENT+0x8>
     f4d:	01 
     f4e:	0f 85 92 00 00 00    	jne    fe6 <__stubEVENT+0xa0>
     f54:	48 8b 7c 24 18       	mov    0x18(%rsp),%rdi
     f59:	4c 89 45 f8          	mov    %r8,-0x8(%rbp)
     f5d:	48 8d 45 e0          	lea    -0x20(%rbp),%rax
     f61:	be 01 00 00 00       	mov    $0x1,%esi
     f66:	4c 89 7d e0          	mov    %r15,-0x20(%rbp)
     f6a:	48 89 7d f0          	mov    %rdi,-0x10(%rbp)
     f6e:	31 ff                	xor    %edi,%edi
     f70:	4c 89 65 e8          	mov    %r12,-0x18(%rbp)
     f74:	48 8b 4b 20          	mov    0x20(%rbx),%rcx
     f78:	4c 89 8c 24 a0 02 00 	mov    %r9,0x2a0(%rsp)
     f7f:	00 
     f80:	48 89 01             	mov    %rax,(%rcx)
     f83:	48 89 94 24 98 02 00 	mov    %rdx,0x298(%rsp)
     f8a:	00 
     f8b:	4c 89 84 24 90 02 00 	mov    %r8,0x290(%rsp)
     f92:	00 
     f93:	48 89 84 24 88 02 00 	mov    %rax,0x288(%rsp)
     f9a:	00 
     f9b:	e8 00 00 00 00       	callq  fa0 <__stubEVENT+0x5a>
     fa0:	48 8b 4b 20          	mov    0x20(%rbx),%rcx
     fa4:	48 8b 84 24 88 02 00 	mov    0x288(%rsp),%rax
     fab:	00 
     fac:	4c 8b 84 24 90 02 00 	mov    0x290(%rsp),%r8
     fb3:	00 
     fb4:	48 8b 94 24 98 02 00 	mov    0x298(%rsp),%rdx
     fbb:	00 
     fbc:	48 39 01             	cmp    %rax,(%rcx)
     fbf:	4c 8b 8c 24 a0 02 00 	mov    0x2a0(%rsp),%r9
     fc6:	00 
     fc7:	0f 85 08 20 00 00    	jne    2fd5 <__stubDIVINT+0x9ac>
     fcd:	4c 39 7d e0          	cmp    %r15,-0x20(%rbp)
     fd1:	0f 85 e6 1f 00 00    	jne    2fbd <__stubDIVINT+0x994>
     fd7:	48 8b 44 24 18       	mov    0x18(%rsp),%rax
     fdc:	48 39 45 f0          	cmp    %rax,-0x10(%rbp)
     fe0:	0f 85 e2 22 00 00    	jne    32c8 <__stubDIVINT+0xc9f>
     fe6:	4c 89 e7             	mov    %r12,%rdi
     fe9:	4c 89 84 24 b8 02 00 	mov    %r8,0x2b8(%rsp)
     ff0:	00 
     ff1:	4c 89 8c 24 b0 02 00 	mov    %r9,0x2b0(%rsp)
     ff8:	00 
     ff9:	48 89 94 24 a8 02 00 	mov    %rdx,0x2a8(%rsp)
    1000:	00 
    1001:	e8 00 00 00 00       	callq  1006 <__stubEVENT+0xc0>
    1006:	48 8b 94 24 a8 02 00 	mov    0x2a8(%rsp),%rdx
    100d:	00 
    100e:	4c 8b 8c 24 b0 02 00 	mov    0x2b0(%rsp),%r9
    1015:	00 
    1016:	4c 8b 84 24 b8 02 00 	mov    0x2b8(%rsp),%r8
    101d:	00 
    101e:	89 c1                	mov    %eax,%ecx
    1020:	e9 55 f3 ff ff       	jmpq   37a <__stubCHECK_SIGNALS+0x1ea>
    1025:	4d 89 e5             	mov    %r12,%r13

0000000000001028 <__stubRERAISE>:
    1028:	48 8b 44 24 08       	mov    0x8(%rsp),%rax
    102d:	48 8b 98 e0 01 00 00 	mov    0x1e0(%rax),%rbx
    1034:	48 39 98 d8 01 00 00 	cmp    %rbx,0x1d8(%rax)
    103b:	0f 8d 3a 1a 00 00    	jge    2a7b <__stubDIVINT+0x452>
    1041:	48 8b 44 24 08       	mov    0x8(%rsp),%rax
    1046:	48 83 b8 c0 00 00 00 	cmpq   $0x0,0xc0(%rax)
    104d:	00 
    104e:	0f 84 78 17 00 00    	je     27cc <__stubDIVINT+0x1a3>
    1054:	4c 89 6d f8          	mov    %r13,-0x8(%rbp)
    1058:	4c 8d 65 f8          	lea    -0x8(%rbp),%r12
    105c:	ba 01 00 00 00       	mov    $0x1,%edx
    1061:	4c 89 ff             	mov    %r15,%rdi
    1064:	4c 89 e6             	mov    %r12,%rsi
    1067:	4c 89 fb             	mov    %r15,%rbx
    106a:	4c 89 e5             	mov    %r12,%rbp
    106d:	e8 00 00 00 00       	callq  1072 <__stubRERAISE+0x4a>
    1072:	48 8b 44 24 08       	mov    0x8(%rsp),%rax
    1077:	48 8b 80 d8 01 00 00 	mov    0x1d8(%rax),%rax
    107e:	e9 91 f0 ff ff       	jmpq   114 <caml_interprete+0x114>

0000000000001083 <__stubSETBYTESCHAR>:
    1083:	48 8b 45 00          	mov    0x0(%rbp),%rax
    1087:	48 8b 55 08          	mov    0x8(%rbp),%rdx
    108b:	4d 89 cc             	mov    %r9,%r12
    108e:	48 83 c5 10          	add    $0x10,%rbp
    1092:	48 d1 f8             	sar    %rax
    1095:	48 d1 fa             	sar    %rdx
    1098:	42 88 14 38          	mov    %dl,(%rax,%r15,1)
    109c:	41 bf 01 00 00 00    	mov    $0x1,%r15d
    10a2:	e9 71 f5 ff ff       	jmpq   618 <__stubPUSH+0xe>
    10a7:	4c 89 8c 24 d8 02 00 	mov    %r9,0x2d8(%rsp)
    10ae:	00 
    10af:	48 89 94 24 d0 02 00 	mov    %rdx,0x2d0(%rsp)
    10b6:	00 

00000000000010b7 <__stubBREAK>:
    10b7:	48 8b 7c 24 18       	mov    0x18(%rsp),%rdi
    10bc:	4c 89 45 f8          	mov    %r8,-0x8(%rbp)
    10c0:	48 8d 45 e0          	lea    -0x20(%rbp),%rax
    10c4:	be 01 00 00 00       	mov    $0x1,%esi
    10c9:	4c 89 7d e0          	mov    %r15,-0x20(%rbp)
    10cd:	48 89 7d f0          	mov    %rdi,-0x10(%rbp)
    10d1:	bf 01 00 00 00       	mov    $0x1,%edi
    10d6:	4c 89 65 e8          	mov    %r12,-0x18(%rbp)
    10da:	48 8b 4b 20          	mov    0x20(%rbx),%rcx
    10de:	4c 89 84 24 c8 02 00 	mov    %r8,0x2c8(%rsp)
    10e5:	00 
    10e6:	48 89 01             	mov    %rax,(%rcx)
    10e9:	48 89 84 24 c0 02 00 	mov    %rax,0x2c0(%rsp)
    10f0:	00 
    10f1:	e8 00 00 00 00       	callq  10f6 <__stubBREAK+0x3f>
    10f6:	48 8b 4b 20          	mov    0x20(%rbx),%rcx
    10fa:	48 8b 84 24 c0 02 00 	mov    0x2c0(%rsp),%rax
    1101:	00 
    1102:	4c 8b 84 24 c8 02 00 	mov    0x2c8(%rsp),%r8
    1109:	00 
    110a:	48 8b 94 24 d0 02 00 	mov    0x2d0(%rsp),%rdx
    1111:	00 
    1112:	48 39 01             	cmp    %rax,(%rcx)
    1115:	4c 8b 8c 24 d8 02 00 	mov    0x2d8(%rsp),%r9
    111c:	00 
    111d:	0f 85 82 1e 00 00    	jne    2fa5 <__stubDIVINT+0x97c>
    1123:	4c 39 7d e0          	cmp    %r15,-0x20(%rbp)
    1127:	0f 85 60 1e 00 00    	jne    2f8d <__stubDIVINT+0x964>
    112d:	48 8b 44 24 18       	mov    0x18(%rsp),%rax
    1132:	48 39 45 f0          	cmp    %rax,-0x10(%rbp)
    1136:	0f 85 39 1e 00 00    	jne    2f75 <__stubDIVINT+0x94c>
    113c:	4c 89 e7             	mov    %r12,%rdi
    113f:	4c 89 84 24 f0 02 00 	mov    %r8,0x2f0(%rsp)
    1146:	00 
    1147:	4c 89 8c 24 e8 02 00 	mov    %r9,0x2e8(%rsp)
    114e:	00 
    114f:	48 89 94 24 e0 02 00 	mov    %rdx,0x2e0(%rsp)
    1156:	00 
    1157:	e8 00 00 00 00       	callq  115c <__stubBREAK+0xa5>
    115c:	48 8b 94 24 e0 02 00 	mov    0x2e0(%rsp),%rdx
    1163:	00 
    1164:	4c 8b 8c 24 e8 02 00 	mov    0x2e8(%rsp),%r9
    116b:	00 
    116c:	4c 8b 84 24 f0 02 00 	mov    0x2f0(%rsp),%r8
    1173:	00 
    1174:	89 c1                	mov    %eax,%ecx
    1176:	e9 ff f1 ff ff       	jmpq   37a <__stubCHECK_SIGNALS+0x1ea>

000000000000117b <__stubBRANCH>:
    117b:	49 63 44 24 04       	movslq 0x4(%r12),%rax
    1180:	4d 8d 24 81          	lea    (%r9,%rax,4),%r12
    1184:	e9 8f f4 ff ff       	jmpq   618 <__stubPUSH+0xe>

0000000000001189 <__stubBRANCHIFNOT>:
    1189:	49 83 ff 01          	cmp    $0x1,%r15
    118d:	0f 84 3d 1a 00 00    	je     2bd0 <__stubDIVINT+0x5a7>
    1193:	49 83 c4 08          	add    $0x8,%r12
    1197:	e9 7c f4 ff ff       	jmpq   618 <__stubPUSH+0xe>

000000000000119c <__stubSWITCH>:
    119c:	41 8b 44 24 04       	mov    0x4(%r12),%eax
    11a1:	49 8d 4c 24 08       	lea    0x8(%r12),%rcx
    11a6:	41 f6 c7 01          	test   $0x1,%r15b
    11aa:	0f 85 be 16 00 00    	jne    286e <__stubDIVINT+0x245>
    11b0:	89 c7                	mov    %eax,%edi
    11b2:	41 0f b6 77 f8       	movzbl -0x8(%r15),%esi
    11b7:	c1 ef 10             	shr    $0x10,%edi
    11ba:	39 f7                	cmp    %esi,%edi
    11bc:	0f 86 ee 20 00 00    	jbe    32b0 <__stubDIVINT+0xc87>
    11c2:	0f b7 c0             	movzwl %ax,%eax
    11c5:	48 01 f0             	add    %rsi,%rax
    11c8:	48 63 04 81          	movslq (%rcx,%rax,4),%rax
    11cc:	4c 8d 24 81          	lea    (%rcx,%rax,4),%r12
    11d0:	e9 43 f4 ff ff       	jmpq   618 <__stubPUSH+0xe>

00000000000011d5 <__stubC_CALL4>:
    11d5:	48 8b 44 24 18       	mov    0x18(%rsp),%rax
    11da:	4d 8d 44 24 08       	lea    0x8(%r12),%r8
    11df:	48 8d 55 f0          	lea    -0x10(%rbp),%rdx
    11e3:	4c 89 ff             	mov    %r15,%rdi
    11e6:	4c 89 45 f8          	mov    %r8,-0x8(%rbp)
    11ea:	48 89 45 f0          	mov    %rax,-0x10(%rbp)
    11ee:	48 8b 43 20          	mov    0x20(%rbx),%rax
    11f2:	4c 89 84 24 68 02 00 	mov    %r8,0x268(%rsp)
    11f9:	00 
    11fa:	48 89 10             	mov    %rdx,(%rax)
    11fd:	4d 63 5c 24 04       	movslq 0x4(%r12),%r11
    1202:	31 c0                	xor    %eax,%eax
    1204:	4c 8b 0d 00 00 00 00 	mov    0x0(%rip),%r9        # 120b <__stubC_CALL4+0x36>
    120b:	48 8b 4d 10          	mov    0x10(%rbp),%rcx
    120f:	48 8b 55 08          	mov    0x8(%rbp),%rdx
    1213:	48 8b 75 00          	mov    0x0(%rbp),%rsi
    1217:	43 ff 14 d9          	callq  *(%r9,%r11,8)
    121b:	4c 8b 84 24 68 02 00 	mov    0x268(%rsp),%r8
    1222:	00 
    1223:	49 89 c7             	mov    %rax,%r15
    1226:	48 8b 43 20          	mov    0x20(%rbx),%rax
    122a:	4d 89 c4             	mov    %r8,%r12
    122d:	4c 8b 10             	mov    (%rax),%r10
    1230:	49 8b 02             	mov    (%r10),%rax
    1233:	49 8d 6a 28          	lea    0x28(%r10),%rbp
    1237:	48 89 44 24 18       	mov    %rax,0x18(%rsp)
    123c:	e9 d7 f3 ff ff       	jmpq   618 <__stubPUSH+0xe>

0000000000001241 <__stubC_CALL5>:
    1241:	48 8b 44 24 18       	mov    0x18(%rsp),%rax
    1246:	4d 8d 4c 24 08       	lea    0x8(%r12),%r9
    124b:	48 8d 55 f0          	lea    -0x10(%rbp),%rdx
    124f:	4c 89 ff             	mov    %r15,%rdi
    1252:	4c 89 4d f8          	mov    %r9,-0x8(%rbp)
    1256:	48 89 45 f0          	mov    %rax,-0x10(%rbp)
    125a:	48 8b 43 20          	mov    0x20(%rbx),%rax
    125e:	4c 89 8c 24 70 02 00 	mov    %r9,0x270(%rsp)
    1265:	00 
    1266:	48 89 10             	mov    %rdx,(%rax)
    1269:	4d 63 5c 24 04       	movslq 0x4(%r12),%r11
    126e:	31 c0                	xor    %eax,%eax
    1270:	4c 8b 15 00 00 00 00 	mov    0x0(%rip),%r10        # 1277 <__stubC_CALL5+0x36>
    1277:	48 8b 4d 10          	mov    0x10(%rbp),%rcx
    127b:	48 8b 55 08          	mov    0x8(%rbp),%rdx
    127f:	4c 8b 45 18          	mov    0x18(%rbp),%r8
    1283:	48 8b 75 00          	mov    0x0(%rbp),%rsi
    1287:	43 ff 14 da          	callq  *(%r10,%r11,8)
    128b:	4c 8b 8c 24 70 02 00 	mov    0x270(%rsp),%r9
    1292:	00 
    1293:	49 89 c7             	mov    %rax,%r15
    1296:	48 8b 43 20          	mov    0x20(%rbx),%rax
    129a:	4d 89 cc             	mov    %r9,%r12
    129d:	4c 8b 10             	mov    (%rax),%r10
    12a0:	49 8b 02             	mov    (%r10),%rax
    12a3:	49 8d 6a 30          	lea    0x30(%r10),%rbp
    12a7:	48 89 44 24 18       	mov    %rax,0x18(%rsp)
    12ac:	e9 67 f3 ff ff       	jmpq   618 <__stubPUSH+0xe>
    12b1:	4c 89 f8             	mov    %r15,%rax
    12b4:	49 63 54 24 04       	movslq 0x4(%r12),%rdx
    12b9:	48 d1 f8             	sar    %rax
    12bc:	48 39 c2             	cmp    %rax,%rdx
    12bf:	0f 82 fe 14 00 00    	jb     27c3 <__stubDIVINT+0x19a>
    12c5:	49 63 44 24 08       	movslq 0x8(%r12),%rax
    12ca:	4d 8d 64 84 08       	lea    0x8(%r12,%rax,4),%r12
    12cf:	e9 44 f3 ff ff       	jmpq   618 <__stubPUSH+0xe>

00000000000012d4 <__stubGETPUBMET>:
    12d4:	49 8b 37             	mov    (%r15),%rsi
    12d7:	4c 89 7d f8          	mov    %r15,-0x8(%rbp)
    12db:	4c 8d 45 f8          	lea    -0x8(%rbp),%r8
    12df:	49 63 44 24 04       	movslq 0x4(%r12),%rax
    12e4:	49 89 f1             	mov    %rsi,%r9
    12e7:	48 8d 7c 00 01       	lea    0x1(%rax,%rax,1),%rdi
    12ec:	49 63 44 24 08       	movslq 0x8(%r12),%rax
    12f1:	48 23 46 08          	and    0x8(%rsi),%rax
    12f5:	48 01 f0             	add    %rsi,%rax
    12f8:	48 39 78 18          	cmp    %rdi,0x18(%rax)
    12fc:	0f 85 1c 15 00 00    	jne    281e <__stubDIVINT+0x1f5>
    1302:	4c 8b 78 10          	mov    0x10(%rax),%r15
    1306:	49 83 c4 0c          	add    $0xc,%r12
    130a:	4c 89 c5             	mov    %r8,%rbp
    130d:	e9 06 f3 ff ff       	jmpq   618 <__stubPUSH+0xe>

0000000000001312 <__stubGETDYNMET>:
    1312:	48 8b 45 00          	mov    0x0(%rbp),%rax
    1316:	ba 03 00 00 00       	mov    $0x3,%edx
    131b:	48 8b 08             	mov    (%rax),%rcx
    131e:	8b 31                	mov    (%rcx),%esi
    1320:	48 89 cf             	mov    %rcx,%rdi
    1323:	eb 1a                	jmp    133f <__stubGETDYNMET+0x2d>
    1325:	0f 1f 00             	nopl   (%rax)
    1328:	8d 04 32             	lea    (%rdx,%rsi,1),%eax
    132b:	d1 f8                	sar    %eax
    132d:	83 c8 01             	or     $0x1,%eax
    1330:	4c 63 c0             	movslq %eax,%r8
    1333:	4e 39 3c c7          	cmp    %r15,(%rdi,%r8,8)
    1337:	0f 8f 18 13 00 00    	jg     2655 <__stubDIVINT+0x2c>
    133d:	89 c2                	mov    %eax,%edx
    133f:	39 f2                	cmp    %esi,%edx
    1341:	7c e5                	jl     1328 <__stubGETDYNMET+0x16>
    1343:	8d 42 ff             	lea    -0x1(%rdx),%eax
    1346:	4d 89 cc             	mov    %r9,%r12
    1349:	48 98                	cltq   
    134b:	4c 8b 3c c1          	mov    (%rcx,%rax,8),%r15
    134f:	e9 c4 f2 ff ff       	jmpq   618 <__stubPUSH+0xe>
    1354:	4d 89 cd             	mov    %r9,%r13
    1357:	e9 34 ee ff ff       	jmpq   190 <__stubCHECK_SIGNALS>

000000000000135c <__stubC_CALL1>:
    135c:	48 8b 44 24 18       	mov    0x18(%rsp),%rax
    1361:	49 8d 54 24 08       	lea    0x8(%r12),%rdx
    1366:	4c 8d 55 f0          	lea    -0x10(%rbp),%r10
    136a:	4c 89 ff             	mov    %r15,%rdi
    136d:	48 89 55 f8          	mov    %rdx,-0x8(%rbp)
    1371:	48 89 45 f0          	mov    %rax,-0x10(%rbp)
    1375:	48 8b 43 20          	mov    0x20(%rbx),%rax
    1379:	48 89 94 24 50 02 00 	mov    %rdx,0x250(%rsp)
    1380:	00 
    1381:	4c 89 10             	mov    %r10,(%rax)
    1384:	49 63 74 24 04       	movslq 0x4(%r12),%rsi
    1389:	31 c0                	xor    %eax,%eax
    138b:	48 8b 0d 00 00 00 00 	mov    0x0(%rip),%rcx        # 1392 <__stubC_CALL1+0x36>
    1392:	ff 14 f1             	callq  *(%rcx,%rsi,8)
    1395:	48 8b 94 24 50 02 00 	mov    0x250(%rsp),%rdx
    139c:	00 
    139d:	49 89 c7             	mov    %rax,%r15
    13a0:	48 8b 43 20          	mov    0x20(%rbx),%rax
    13a4:	49 89 d4             	mov    %rdx,%r12
    13a7:	4c 8b 10             	mov    (%rax),%r10
    13aa:	49 8b 02             	mov    (%r10),%rax
    13ad:	49 8d 6a 10          	lea    0x10(%r10),%rbp
    13b1:	48 89 44 24 18       	mov    %rax,0x18(%rsp)
    13b6:	e9 5d f2 ff ff       	jmpq   618 <__stubPUSH+0xe>

00000000000013bb <__stubC_CALL2>:
    13bb:	48 8b 44 24 18       	mov    0x18(%rsp),%rax
    13c0:	49 8d 54 24 08       	lea    0x8(%r12),%rdx
    13c5:	48 8d 4d f0          	lea    -0x10(%rbp),%rcx
    13c9:	4c 89 ff             	mov    %r15,%rdi
    13cc:	48 89 55 f8          	mov    %rdx,-0x8(%rbp)
    13d0:	48 89 45 f0          	mov    %rax,-0x10(%rbp)
    13d4:	48 8b 43 20          	mov    0x20(%rbx),%rax
    13d8:	48 89 94 24 58 02 00 	mov    %rdx,0x258(%rsp)
    13df:	00 
    13e0:	48 89 08             	mov    %rcx,(%rax)
    13e3:	4d 63 44 24 04       	movslq 0x4(%r12),%r8
    13e8:	31 c0                	xor    %eax,%eax
    13ea:	48 8b 0d 00 00 00 00 	mov    0x0(%rip),%rcx        # 13f1 <__stubC_CALL2+0x36>
    13f1:	48 8b 75 00          	mov    0x0(%rbp),%rsi
    13f5:	42 ff 14 c1          	callq  *(%rcx,%r8,8)
    13f9:	48 8b 94 24 58 02 00 	mov    0x258(%rsp),%rdx
    1400:	00 
    1401:	49 89 c7             	mov    %rax,%r15
    1404:	48 8b 43 20          	mov    0x20(%rbx),%rax
    1408:	49 89 d4             	mov    %rdx,%r12
    140b:	4c 8b 10             	mov    (%rax),%r10
    140e:	49 8b 02             	mov    (%r10),%rax
    1411:	49 8d 6a 18          	lea    0x18(%r10),%rbp
    1415:	48 89 44 24 18       	mov    %rax,0x18(%rsp)
    141a:	e9 f9 f1 ff ff       	jmpq   618 <__stubPUSH+0xe>

000000000000141f <__stubC_CALL3>:
    141f:	48 8b 44 24 18       	mov    0x18(%rsp),%rax
    1424:	49 8d 4c 24 08       	lea    0x8(%r12),%rcx
    1429:	48 8d 55 f0          	lea    -0x10(%rbp),%rdx
    142d:	4c 89 ff             	mov    %r15,%rdi
    1430:	48 89 4d f8          	mov    %rcx,-0x8(%rbp)
    1434:	48 89 45 f0          	mov    %rax,-0x10(%rbp)
    1438:	48 8b 43 20          	mov    0x20(%rbx),%rax
    143c:	48 89 8c 24 60 02 00 	mov    %rcx,0x260(%rsp)
    1443:	00 
    1444:	48 89 10             	mov    %rdx,(%rax)
    1447:	4d 63 4c 24 04       	movslq 0x4(%r12),%r9
    144c:	31 c0                	xor    %eax,%eax
    144e:	4c 8b 05 00 00 00 00 	mov    0x0(%rip),%r8        # 1455 <__stubC_CALL3+0x36>
    1455:	48 8b 55 08          	mov    0x8(%rbp),%rdx
    1459:	48 8b 75 00          	mov    0x0(%rbp),%rsi
    145d:	43 ff 14 c8          	callq  *(%r8,%r9,8)
    1461:	48 8b 8c 24 60 02 00 	mov    0x260(%rsp),%rcx
    1468:	00 
    1469:	49 89 c7             	mov    %rax,%r15
    146c:	48 8b 43 20          	mov    0x20(%rbx),%rax
    1470:	49 89 cc             	mov    %rcx,%r12
    1473:	4c 8b 10             	mov    (%rax),%r10
    1476:	49 8b 02             	mov    (%r10),%rax
    1479:	49 8d 6a 20          	lea    0x20(%r10),%rbp
    147d:	48 89 44 24 18       	mov    %rax,0x18(%rsp)
    1482:	e9 91 f1 ff ff       	jmpq   618 <__stubPUSH+0xe>
    1487:	4c 89 8c 24 48 02 00 	mov    %r9,0x248(%rsp)
    148e:	00 
    148f:	4c 89 84 24 40 02 00 	mov    %r8,0x240(%rsp)
    1496:	00 

0000000000001497 <__stubPOPTRAP>:
    1497:	e8 00 00 00 00       	callq  149c <__stubPOPTRAP+0x5>
    149c:	48 8b 03             	mov    (%rbx),%rax
    149f:	48 39 43 08          	cmp    %rax,0x8(%rbx)
    14a3:	4c 8b 84 24 40 02 00 	mov    0x240(%rsp),%r8
    14aa:	00 
    14ab:	0f 82 17 18 00 00    	jb     2cc8 <__stubDIVINT+0x69f>
    14b1:	4c 89 84 24 38 02 00 	mov    %r8,0x238(%rsp)
    14b8:	00 
    14b9:	e8 00 00 00 00       	callq  14be <__stubPOPTRAP+0x27>
    14be:	4c 8b 84 24 38 02 00 	mov    0x238(%rsp),%r8
    14c5:	00 
    14c6:	85 c0                	test   %eax,%eax
    14c8:	0f 85 fa 17 00 00    	jne    2cc8 <__stubDIVINT+0x69f>
    14ce:	48 8b 45 08          	mov    0x8(%rbp),%rax
    14d2:	4c 8b 8c 24 48 02 00 	mov    0x248(%rsp),%r9
    14d9:	00 
    14da:	48 83 c5 20          	add    $0x20,%rbp
    14de:	48 d1 f8             	sar    %rax
    14e1:	4d 89 cc             	mov    %r9,%r12
    14e4:	48 89 83 d8 01 00 00 	mov    %rax,0x1d8(%rbx)
    14eb:	e9 28 f1 ff ff       	jmpq   618 <__stubPUSH+0xe>
    14f0:	4d 89 e5             	mov    %r12,%r13

00000000000014f3 <__stubRAISE>:
    14f3:	48 8b 44 24 10       	mov    0x10(%rsp),%rax
    14f8:	4c 89 fb             	mov    %r15,%rbx
    14fb:	48 89 44 24 20       	mov    %rax,0x20(%rsp)
    1500:	48 8b 44 24 08       	mov    0x8(%rsp),%rax
    1505:	48 8b b8 e0 01 00 00 	mov    0x1e0(%rax),%rdi
    150c:	48 39 b8 d8 01 00 00 	cmp    %rdi,0x1d8(%rax)
    1513:	0f 8d 8d 12 00 00    	jge    27a6 <__stubDIVINT+0x17d>
    1519:	48 8b 44 24 08       	mov    0x8(%rsp),%rax
    151e:	48 83 b8 c0 00 00 00 	cmpq   $0x0,0xc0(%rax)
    1525:	00 
    1526:	0f 84 dc eb ff ff    	je     108 <caml_interprete+0x108>
    152c:	4c 89 6d f8          	mov    %r13,-0x8(%rbp)
    1530:	4c 8d 65 f8          	lea    -0x8(%rbp),%r12
    1534:	31 d2                	xor    %edx,%edx
    1536:	48 89 df             	mov    %rbx,%rdi
    1539:	4c 89 e6             	mov    %r12,%rsi
    153c:	4c 89 e5             	mov    %r12,%rbp
    153f:	e8 00 00 00 00       	callq  1544 <__stubRAISE+0x51>
    1544:	48 8b 44 24 08       	mov    0x8(%rsp),%rax
    1549:	48 8b 80 d8 01 00 00 	mov    0x1d8(%rax),%rax
    1550:	e9 bf eb ff ff       	jmpq   114 <caml_interprete+0x114>

0000000000001555 <__stubPUSHTRAP>:
    1555:	49 63 44 24 04       	movslq 0x4(%r12),%rax
    155a:	48 8d 55 e0          	lea    -0x20(%rbp),%rdx
    155e:	49 83 c4 08          	add    $0x8,%r12
    1562:	48 89 d7             	mov    %rdx,%rdi
    1565:	49 8d 04 81          	lea    (%r9,%rax,4),%rax
    1569:	48 89 45 e0          	mov    %rax,-0x20(%rbp)
    156d:	48 8b 83 d8 01 00 00 	mov    0x1d8(%rbx),%rax
    1574:	4c 89 45 f8          	mov    %r8,-0x8(%rbp)
    1578:	48 8d 44 00 01       	lea    0x1(%rax,%rax,1),%rax
    157d:	48 89 45 e8          	mov    %rax,-0x18(%rbp)
    1581:	48 8b 44 24 18       	mov    0x18(%rsp),%rax
    1586:	48 89 45 f0          	mov    %rax,-0x10(%rbp)
    158a:	48 8b 43 20          	mov    0x20(%rbx),%rax
    158e:	48 89 d5             	mov    %rdx,%rbp
    1591:	48 2b 78 10          	sub    0x10(%rax),%rdi
    1595:	48 89 f8             	mov    %rdi,%rax
    1598:	48 c1 f8 03          	sar    $0x3,%rax
    159c:	48 89 83 d8 01 00 00 	mov    %rax,0x1d8(%rbx)
    15a3:	e9 70 f0 ff ff       	jmpq   618 <__stubPUSH+0xe>

00000000000015a8 <__stubBRANCHIF>:
    15a8:	49 83 ff 01          	cmp    $0x1,%r15
    15ac:	0f 84 61 15 00 00    	je     2b13 <__stubDIVINT+0x4ea>
    15b2:	49 63 44 24 04       	movslq 0x4(%r12),%rax
    15b7:	4d 8d 24 81          	lea    (%r9,%rax,4),%r12
    15bb:	e9 58 f0 ff ff       	jmpq   618 <__stubPUSH+0xe>
    15c0:	4c 39 7d 00          	cmp    %r15,0x0(%rbp)
    15c4:	48 8d 45 08          	lea    0x8(%rbp),%rax
    15c8:	4d 89 cc             	mov    %r9,%r12
    15cb:	41 bf 01 00 00 00    	mov    $0x1,%r15d
    15d1:	48 89 c5             	mov    %rax,%rbp
    15d4:	0f 87 3e f0 ff ff    	ja     618 <__stubPUSH+0xe>
    15da:	41 bf 03 00 00 00    	mov    $0x3,%r15d
    15e0:	e9 33 f0 ff ff       	jmpq   618 <__stubPUSH+0xe>

00000000000015e5 <__stubNEGINT>:
    15e5:	b8 02 00 00 00       	mov    $0x2,%eax
    15ea:	4d 89 cc             	mov    %r9,%r12
    15ed:	4c 29 f8             	sub    %r15,%rax
    15f0:	49 89 c7             	mov    %rax,%r15
    15f3:	e9 20 f0 ff ff       	jmpq   618 <__stubPUSH+0xe>

00000000000015f8 <__stubADDINT>:
    15f8:	48 8b 45 00          	mov    0x0(%rbp),%rax
    15fc:	4d 89 cc             	mov    %r9,%r12
    15ff:	48 83 c5 08          	add    $0x8,%rbp
    1603:	4d 8d 7c 07 ff       	lea    -0x1(%r15,%rax,1),%r15
    1608:	e9 0b f0 ff ff       	jmpq   618 <__stubPUSH+0xe>

000000000000160d <__stubSUBINT>:
    160d:	49 83 c7 01          	add    $0x1,%r15
    1611:	48 83 c5 08          	add    $0x8,%rbp
    1615:	4c 2b 7d f8          	sub    -0x8(%rbp),%r15
    1619:	4d 89 cc             	mov    %r9,%r12
    161c:	e9 f7 ef ff ff       	jmpq   618 <__stubPUSH+0xe>

0000000000001621 <__stubC_CALLN>:
    1621:	48 8b 44 24 18       	mov    0x18(%rsp),%rax
    1626:	49 8d 4c 24 0c       	lea    0xc(%r12),%rcx
    162b:	41 8b 54 24 04       	mov    0x4(%r12),%edx
    1630:	4c 89 7d f8          	mov    %r15,-0x8(%rbp)
    1634:	48 89 4d f0          	mov    %rcx,-0x10(%rbp)
    1638:	48 8d 75 e8          	lea    -0x18(%rbp),%rsi
    163c:	48 8d 7d f8          	lea    -0x8(%rbp),%rdi
    1640:	48 89 45 e8          	mov    %rax,-0x18(%rbp)
    1644:	48 8b 43 20          	mov    0x20(%rbx),%rax
    1648:	48 89 8c 24 80 02 00 	mov    %rcx,0x280(%rsp)
    164f:	00 
    1650:	48 89 30             	mov    %rsi,(%rax)
    1653:	4d 63 4c 24 08       	movslq 0x8(%r12),%r9
    1658:	89 d6                	mov    %edx,%esi
    165a:	31 c0                	xor    %eax,%eax
    165c:	4c 8b 05 00 00 00 00 	mov    0x0(%rip),%r8        # 1663 <__stubC_CALLN+0x42>
    1663:	89 94 24 7c 02 00 00 	mov    %edx,0x27c(%rsp)
    166a:	43 ff 14 c8          	callq  *(%r8,%r9,8)
    166e:	48 8b 8c 24 80 02 00 	mov    0x280(%rsp),%rcx
    1675:	00 
    1676:	49 89 c7             	mov    %rax,%r15
    1679:	48 8b 43 20          	mov    0x20(%rbx),%rax
    167d:	49 89 cc             	mov    %rcx,%r12
    1680:	48 8b 30             	mov    (%rax),%rsi
    1683:	48 8b 06             	mov    (%rsi),%rax
    1686:	48 89 44 24 18       	mov    %rax,0x18(%rsp)
    168b:	48 63 84 24 7c 02 00 	movslq 0x27c(%rsp),%rax
    1692:	00 
    1693:	48 8d 6c c6 10       	lea    0x10(%rsi,%rax,8),%rbp
    1698:	e9 7b ef ff ff       	jmpq   618 <__stubPUSH+0xe>

000000000000169d <__stubPUSHCONST3>:
    169d:	4c 89 7d f8          	mov    %r15,-0x8(%rbp)
    16a1:	4d 89 cc             	mov    %r9,%r12
    16a4:	48 83 ed 08          	sub    $0x8,%rbp
    16a8:	41 bf 07 00 00 00    	mov    $0x7,%r15d
    16ae:	e9 65 ef ff ff       	jmpq   618 <__stubPUSH+0xe>

00000000000016b3 <__stubSTOP>:
    16b3:	48 8b 54 24 40       	mov    0x40(%rsp),%rdx
    16b8:	bf 01 00 00 00       	mov    $0x1,%edi
    16bd:	31 c0                	xor    %eax,%eax
    16bf:	31 db                	xor    %ebx,%ebx
    16c1:	48 8d 35 00 00 00 00 	lea    0x0(%rip),%rsi        # 16c8 <__stubSTOP+0x15>
    16c8:	e8 00 00 00 00       	callq  16cd <__stubSTOP+0x1a>
    16cd:	48 8b 7c 24 20       	mov    0x20(%rsp),%rdi
    16d2:	31 c0                	xor    %eax,%eax
    16d4:	48 83 7f 08 00       	cmpq   $0x0,0x8(%rdi)
    16d9:	0f 84 86 0f 00 00    	je     2665 <__stubDIVINT+0x3c>
    16df:	48 89 ac 24 88 01 00 	mov    %rbp,0x188(%rsp)
    16e6:	00 
    16e7:	4c 8b 6c 24 20       	mov    0x20(%rsp),%r13
    16ec:	eb 27                	jmp    1715 <__stubSTOP+0x62>
    16ee:	66 90                	xchg   %ax,%ax
    16f0:	89 da                	mov    %ebx,%edx
    16f2:	48 8d 35 00 00 00 00 	lea    0x0(%rip),%rsi        # 16f9 <__stubSTOP+0x46>
    16f9:	bf 01 00 00 00       	mov    $0x1,%edi
    16fe:	31 c0                	xor    %eax,%eax
    1700:	e8 00 00 00 00       	callq  1705 <__stubSTOP+0x52>
    1705:	83 c3 01             	add    $0x1,%ebx
    1708:	48 63 c3             	movslq %ebx,%rax
    170b:	49 3b 45 08          	cmp    0x8(%r13),%rax
    170f:	0f 83 48 0f 00 00    	jae    265d <__stubDIVINT+0x34>
    1715:	48 c1 e0 04          	shl    $0x4,%rax
    1719:	49 89 c4             	mov    %rax,%r12
    171c:	49 8b 45 00          	mov    0x0(%r13),%rax
    1720:	4a 8b 14 20          	mov    (%rax,%r12,1),%rdx
    1724:	48 85 d2             	test   %rdx,%rdx
    1727:	74 c7                	je     16f0 <__stubSTOP+0x3d>
    1729:	48 8d 0d 00 00 00 00 	lea    0x0(%rip),%rcx        # 1730 <__stubSTOP+0x7d>
    1730:	48 8d 35 00 00 00 00 	lea    0x0(%rip),%rsi        # 1737 <__stubSTOP+0x84>
    1737:	bf 01 00 00 00       	mov    $0x1,%edi
    173c:	31 c0                	xor    %eax,%eax
    173e:	e8 00 00 00 00       	callq  1743 <__stubSTOP+0x90>
    1743:	49 8b 45 00          	mov    0x0(%r13),%rax
    1747:	4c 8d 35 00 00 00 00 	lea    0x0(%rip),%r14        # 174e <__stubSTOP+0x9b>
    174e:	4a 8b 6c 20 08       	mov    0x8(%rax,%r12,1),%rbp
    1753:	45 31 e4             	xor    %r12d,%r12d
    1756:	66 2e 0f 1f 84 00 00 	nopw   %cs:0x0(%rax,%rax,1)
    175d:	00 00 00 
    1760:	4a 8b 4c e5 00       	mov    0x0(%rbp,%r12,8),%rcx
    1765:	44 89 e2             	mov    %r12d,%edx
    1768:	4d 89 f0             	mov    %r14,%r8
    176b:	bf 01 00 00 00       	mov    $0x1,%edi
    1770:	48 8d 35 00 00 00 00 	lea    0x0(%rip),%rsi        # 1777 <__stubSTOP+0xc4>
    1777:	31 c0                	xor    %eax,%eax
    1779:	49 83 c4 01          	add    $0x1,%r12
    177d:	e8 00 00 00 00       	callq  1782 <__stubSTOP+0xcf>
    1782:	49 81 fc 99 00 00 00 	cmp    $0x99,%r12
    1789:	75 d5                	jne    1760 <__stubSTOP+0xad>
    178b:	e9 75 ff ff ff       	jmpq   1705 <__stubSTOP+0x52>
    1790:	4c 39 7d 00          	cmp    %r15,0x0(%rbp)
    1794:	48 8d 45 08          	lea    0x8(%rbp),%rax
    1798:	4d 89 cc             	mov    %r9,%r12
    179b:	41 bf 01 00 00 00    	mov    $0x1,%r15d
    17a1:	48 89 c5             	mov    %rax,%rbp
    17a4:	0f 86 6e ee ff ff    	jbe    618 <__stubPUSH+0xe>
    17aa:	41 bf 03 00 00 00    	mov    $0x3,%r15d
    17b0:	e9 63 ee ff ff       	jmpq   618 <__stubPUSH+0xe>
    17b5:	4c 89 f8             	mov    %r15,%rax
    17b8:	49 63 54 24 04       	movslq 0x4(%r12),%rdx
    17bd:	48 d1 f8             	sar    %rax
    17c0:	48 39 c2             	cmp    %rax,%rdx
    17c3:	0f 83 4c 10 00 00    	jae    2815 <__stubDIVINT+0x1ec>
    17c9:	49 63 44 24 08       	movslq 0x8(%r12),%rax
    17ce:	4d 8d 64 84 08       	lea    0x8(%r12,%rax,4),%r12
    17d3:	e9 40 ee ff ff       	jmpq   618 <__stubPUSH+0xe>

00000000000017d8 <__stubMULINT>:
    17d8:	48 8b 45 00          	mov    0x0(%rbp),%rax
    17dc:	49 d1 ff             	sar    %r15
    17df:	48 83 c5 08          	add    $0x8,%rbp
    17e3:	4d 89 cc             	mov    %r9,%r12
    17e6:	48 d1 f8             	sar    %rax
    17e9:	49 0f af c7          	imul   %r15,%rax
    17ed:	4c 8d 7c 00 01       	lea    0x1(%rax,%rax,1),%r15
    17f2:	e9 21 ee ff ff       	jmpq   618 <__stubPUSH+0xe>

00000000000017f7 <__stubMAKEBLOCK>:
    17f7:	49 63 54 24 04       	movslq 0x4(%r12),%rdx
    17fc:	49 8d 44 24 0c       	lea    0xc(%r12),%rax
    1801:	45 8b 64 24 08       	mov    0x8(%r12),%r12d
    1806:	48 89 44 24 78       	mov    %rax,0x78(%rsp)
    180b:	48 81 fa 00 01 00 00 	cmp    $0x100,%rdx
    1812:	0f 87 25 13 00 00    	ja     2b3d <__stubDIVINT+0x514>
    1818:	48 85 d2             	test   %rdx,%rdx
    181b:	0f 84 10 1b 00 00    	je     3331 <__stubDIVINT+0xd08>
    1821:	41 81 fc ff 00 00 00 	cmp    $0xff,%r12d
    1828:	0f 87 7f 1b 00 00    	ja     33ad <__stubDIVINT+0xd84>
    182e:	48 8b 05 00 00 00 00 	mov    0x0(%rip),%rax        # 1835 <__stubMAKEBLOCK+0x3e>
    1835:	48 8d 3c d5 00 00 00 	lea    0x0(,%rdx,8),%rdi
    183c:	00 
    183d:	48 c7 c1 f8 ff ff ff 	mov    $0xfffffffffffffff8,%rcx
    1844:	48 29 f9             	sub    %rdi,%rcx
    1847:	64 48 8b 00          	mov    %fs:(%rax),%rax
    184b:	48 89 bc 24 20 01 00 	mov    %rdi,0x120(%rsp)
    1852:	00 
    1853:	48 83 c7 08          	add    $0x8,%rdi
    1857:	48 89 8c 24 28 01 00 	mov    %rcx,0x128(%rsp)
    185e:	00 
    185f:	48 01 48 08          	add    %rcx,0x8(%rax)
    1863:	48 89 bc 24 30 01 00 	mov    %rdi,0x130(%rsp)
    186a:	00 
    186b:	48 89 94 24 a0 01 00 	mov    %rdx,0x1a0(%rsp)
    1872:	00 
    1873:	44 89 a4 24 b8 01 00 	mov    %r12d,0x1b8(%rsp)
    187a:	00 
    187b:	49 89 c4             	mov    %rax,%r12
    187e:	e8 00 00 00 00       	callq  1883 <__stubMAKEBLOCK+0x8c>
    1883:	4d 8b 44 24 08       	mov    0x8(%r12),%r8
    1888:	49 8b 0c 24          	mov    (%r12),%rcx
    188c:	49 39 c8             	cmp    %rcx,%r8
    188f:	0f 82 bb 1a 00 00    	jb     3350 <__stubDIVINT+0xd27>
    1895:	48 8b 94 24 a0 01 00 	mov    0x1a0(%rsp),%rdx
    189c:	00 
    189d:	8b b4 24 b8 01 00 00 	mov    0x1b8(%rsp),%esi
    18a4:	4c 89 ff             	mov    %r15,%rdi
    18a7:	48 89 d1             	mov    %rdx,%rcx
    18aa:	48 c1 e1 0a          	shl    $0xa,%rcx
    18ae:	48 01 f1             	add    %rsi,%rcx
    18b1:	48 8b b4 24 20 01 00 	mov    0x120(%rsp),%rsi
    18b8:	00 
    18b9:	49 89 08             	mov    %rcx,(%r8)
    18bc:	49 8b 4c 24 08       	mov    0x8(%r12),%rcx
    18c1:	4c 8d 79 08          	lea    0x8(%rcx),%r15
    18c5:	48 89 c8             	mov    %rcx,%rax
    18c8:	48 01 ce             	add    %rcx,%rsi
    18cb:	49 ba d7 d6 10 d7 d7 	movabs $0xd710d7d7d710d6d7,%r10
    18d2:	d7 10 d7 
    18d5:	48 83 c0 08          	add    $0x8,%rax
    18d9:	4c 89 10             	mov    %r10,(%rax)
    18dc:	48 39 c6             	cmp    %rax,%rsi
    18df:	75 ea                	jne    18cb <__stubMAKEBLOCK+0xd4>
    18e1:	48 89 79 08          	mov    %rdi,0x8(%rcx)
    18e5:	48 83 fa 01          	cmp    $0x1,%rdx
    18e9:	0f 86 11 1a 00 00    	jbe    3300 <__stubDIVINT+0xcd7>
    18ef:	b8 01 00 00 00       	mov    $0x1,%eax
    18f4:	48 8b 74 c5 f8       	mov    -0x8(%rbp,%rax,8),%rsi
    18f9:	48 89 74 c1 08       	mov    %rsi,0x8(%rcx,%rax,8)
    18fe:	48 89 c6             	mov    %rax,%rsi
    1901:	48 83 c0 01          	add    $0x1,%rax
    1905:	48 39 c2             	cmp    %rax,%rdx
    1908:	75 ea                	jne    18f4 <__stubMAKEBLOCK+0xfd>
    190a:	4c 8b 64 24 78       	mov    0x78(%rsp),%r12
    190f:	48 8d 6c f5 00       	lea    0x0(%rbp,%rsi,8),%rbp
    1914:	e9 ff ec ff ff       	jmpq   618 <__stubPUSH+0xe>

0000000000001919 <__stubPUSHCONST1>:
    1919:	4c 89 7d f8          	mov    %r15,-0x8(%rbp)
    191d:	4d 89 cc             	mov    %r9,%r12
    1920:	48 83 ed 08          	sub    $0x8,%rbp
    1924:	41 bf 03 00 00 00    	mov    $0x3,%r15d
    192a:	e9 e9 ec ff ff       	jmpq   618 <__stubPUSH+0xe>

000000000000192f <__stubAPPTERM>:
    192f:	49 63 4c 24 04       	movslq 0x4(%r12),%rcx
    1934:	49 63 44 24 08       	movslq 0x8(%r12),%rax
    1939:	48 89 ca             	mov    %rcx,%rdx
    193c:	48 29 c8             	sub    %rcx,%rax
    193f:	48 8d 7c c5 00       	lea    0x0(%rbp,%rax,8),%rdi
    1944:	83 ea 01             	sub    $0x1,%edx
    1947:	78 29                	js     1972 <__stubAPPTERM+0x43>
    1949:	48 63 ca             	movslq %edx,%rcx
    194c:	89 d6                	mov    %edx,%esi
    194e:	48 8d 04 cd 00 00 00 	lea    0x0(,%rcx,8),%rax
    1955:	00 
    1956:	48 29 f1             	sub    %rsi,%rcx
    1959:	48 c1 e1 03          	shl    $0x3,%rcx
    195d:	48 8b 74 05 00       	mov    0x0(%rbp,%rax,1),%rsi
    1962:	48 89 34 07          	mov    %rsi,(%rdi,%rax,1)
    1966:	48 89 c6             	mov    %rax,%rsi
    1969:	48 83 e8 08          	sub    $0x8,%rax
    196d:	48 39 ce             	cmp    %rcx,%rsi
    1970:	75 eb                	jne    195d <__stubAPPTERM+0x2e>
    1972:	48 63 d2             	movslq %edx,%rdx
    1975:	4d 8b 2f             	mov    (%r15),%r13
    1978:	48 89 fd             	mov    %rdi,%rbp
    197b:	49 01 d6             	add    %rdx,%r14
    197e:	e9 ef e7 ff ff       	jmpq   172 <caml_interprete+0x172>

0000000000001983 <__stubAPPTERM1>:
    1983:	49 63 54 24 04       	movslq 0x4(%r12),%rdx
    1988:	48 8b 45 00          	mov    0x0(%rbp),%rax
    198c:	48 8d 6c d5 f8       	lea    -0x8(%rbp,%rdx,8),%rbp
    1991:	48 89 45 00          	mov    %rax,0x0(%rbp)
    1995:	4d 8b 2f             	mov    (%r15),%r13
    1998:	e9 d5 e7 ff ff       	jmpq   172 <caml_interprete+0x172>

000000000000199d <__stubAPPTERM2>:
    199d:	49 63 4c 24 04       	movslq 0x4(%r12),%rcx
    19a2:	48 8b 55 00          	mov    0x0(%rbp),%rdx
    19a6:	49 83 c6 01          	add    $0x1,%r14
    19aa:	48 8b 45 08          	mov    0x8(%rbp),%rax
    19ae:	48 8d 6c cd f0       	lea    -0x10(%rbp,%rcx,8),%rbp
    19b3:	48 89 55 00          	mov    %rdx,0x0(%rbp)
    19b7:	48 89 45 08          	mov    %rax,0x8(%rbp)
    19bb:	4d 8b 2f             	mov    (%r15),%r13
    19be:	e9 af e7 ff ff       	jmpq   172 <caml_interprete+0x172>

00000000000019c3 <__stubAPPTERM3>:
    19c3:	49 63 74 24 04       	movslq 0x4(%r12),%rsi
    19c8:	48 8b 4d 00          	mov    0x0(%rbp),%rcx
    19cc:	49 83 c6 02          	add    $0x2,%r14
    19d0:	48 8b 55 08          	mov    0x8(%rbp),%rdx
    19d4:	48 8b 45 10          	mov    0x10(%rbp),%rax
    19d8:	48 8d 6c f5 e8       	lea    -0x18(%rbp,%rsi,8),%rbp
    19dd:	48 89 4d 00          	mov    %rcx,0x0(%rbp)
    19e1:	48 89 55 08          	mov    %rdx,0x8(%rbp)
    19e5:	48 89 45 10          	mov    %rax,0x10(%rbp)
    19e9:	4d 8b 2f             	mov    (%r15),%r13
    19ec:	e9 81 e7 ff ff       	jmpq   172 <caml_interprete+0x172>

00000000000019f1 <__stubGETFLOATFIELD>:
    19f1:	49 8d 44 24 08       	lea    0x8(%r12),%rax
    19f6:	48 89 84 24 c0 00 00 	mov    %rax,0xc0(%rsp)
    19fd:	00 
    19fe:	49 63 44 24 04       	movslq 0x4(%r12),%rax
    1a03:	f2 41 0f 10 0c c7    	movsd  (%r15,%rax,8),%xmm1
    1a09:	48 8b 05 00 00 00 00 	mov    0x0(%rip),%rax        # 1a10 <__stubGETFLOATFIELD+0x1f>
    1a10:	f2 0f 11 8c 24 58 01 	movsd  %xmm1,0x158(%rsp)
    1a17:	00 00 
    1a19:	64 4c 8b 20          	mov    %fs:(%rax),%r12
    1a1d:	49 83 6c 24 08 10    	subq   $0x10,0x8(%r12)
    1a23:	e8 00 00 00 00       	callq  1a28 <__stubGETFLOATFIELD+0x37>
    1a28:	49 8b 54 24 08       	mov    0x8(%r12),%rdx
    1a2d:	49 8b 04 24          	mov    (%r12),%rax
    1a31:	48 39 c2             	cmp    %rax,%rdx
    1a34:	0f 82 b5 13 00 00    	jb     2def <__stubDIVINT+0x7c6>
    1a3a:	f2 0f 10 94 24 58 01 	movsd  0x158(%rsp),%xmm2
    1a41:	00 00 
    1a43:	48 c7 02 fd 04 00 00 	movq   $0x4fd,(%rdx)
    1a4a:	49 8b 44 24 08       	mov    0x8(%r12),%rax
    1a4f:	4c 8b a4 24 c0 00 00 	mov    0xc0(%rsp),%r12
    1a56:	00 
    1a57:	4c 8d 78 08          	lea    0x8(%rax),%r15
    1a5b:	f2 0f 11 50 08       	movsd  %xmm2,0x8(%rax)
    1a60:	e9 b3 eb ff ff       	jmpq   618 <__stubPUSH+0xe>
    1a65:	4c 89 8c 24 10 02 00 	mov    %r9,0x210(%rsp)
    1a6c:	00 

0000000000001a6d <__stubSETFIELD0>:
    1a6d:	48 8b 75 00          	mov    0x0(%rbp),%rsi
    1a71:	4c 89 ff             	mov    %r15,%rdi
    1a74:	4c 8d 65 08          	lea    0x8(%rbp),%r12
    1a78:	41 bf 01 00 00 00    	mov    $0x1,%r15d
    1a7e:	4c 89 e5             	mov    %r12,%rbp
    1a81:	e8 00 00 00 00       	callq  1a86 <__stubSETFIELD0+0x19>
    1a86:	4c 8b 8c 24 10 02 00 	mov    0x210(%rsp),%r9
    1a8d:	00 
    1a8e:	4d 89 cc             	mov    %r9,%r12
    1a91:	e9 82 eb ff ff       	jmpq   618 <__stubPUSH+0xe>

0000000000001a96 <__stubAPPLY>:
    1a96:	41 8b 44 24 04       	mov    0x4(%r12),%eax
    1a9b:	4d 8b 2f             	mov    (%r15),%r13
    1a9e:	83 e8 01             	sub    $0x1,%eax
    1aa1:	4c 63 f0             	movslq %eax,%r14
    1aa4:	4d 85 ed             	test   %r13,%r13
    1aa7:	0f 84 e2 0f 00 00    	je     2a8f <__stubDIVINT+0x466>
    1aad:	48 8b 5c 24 48       	mov    0x48(%rsp),%rbx
    1ab2:	4c 89 ee             	mov    %r13,%rsi
    1ab5:	48 89 df             	mov    %rbx,%rdi
    1ab8:	e8 00 00 00 00       	callq  1abd <__stubAPPLY+0x27>
    1abd:	48 8b 7c 24 10       	mov    0x10(%rsp),%rdi
    1ac2:	48 89 de             	mov    %rbx,%rsi
    1ac5:	e8 00 00 00 00       	callq  1aca <__stubAPPLY+0x34>
    1aca:	e9 a3 e6 ff ff       	jmpq   172 <caml_interprete+0x172>

0000000000001acf <__stubAPPLY1>:
    1acf:	48 8b 45 00          	mov    0x0(%rbp),%rax
    1ad3:	4c 89 4d f0          	mov    %r9,-0x10(%rbp)
    1ad7:	48 8d 5d e8          	lea    -0x18(%rbp),%rbx
    1adb:	4c 89 45 00          	mov    %r8,0x0(%rbp)
    1adf:	48 89 45 e8          	mov    %rax,-0x18(%rbp)
    1ae3:	48 8b 44 24 18       	mov    0x18(%rsp),%rax
    1ae8:	48 89 45 f8          	mov    %rax,-0x8(%rbp)
    1aec:	4d 8b 2f             	mov    (%r15),%r13
    1aef:	4d 85 ed             	test   %r13,%r13
    1af2:	0f 84 b8 0f 00 00    	je     2ab0 <__stubDIVINT+0x487>
    1af8:	48 8b 6c 24 48       	mov    0x48(%rsp),%rbp
    1afd:	4c 89 ee             	mov    %r13,%rsi
    1b00:	45 31 f6             	xor    %r14d,%r14d
    1b03:	48 89 ef             	mov    %rbp,%rdi
    1b06:	e8 00 00 00 00       	callq  1b0b <__stubAPPLY1+0x3c>
    1b0b:	48 8b 7c 24 10       	mov    0x10(%rsp),%rdi
    1b10:	48 89 ee             	mov    %rbp,%rsi
    1b13:	48 89 dd             	mov    %rbx,%rbp
    1b16:	e8 00 00 00 00       	callq  1b1b <__stubAPPLY1+0x4c>
    1b1b:	e9 52 e6 ff ff       	jmpq   172 <caml_interprete+0x172>

0000000000001b20 <__stubAPPLY2>:
    1b20:	48 8b 45 08          	mov    0x8(%rbp),%rax
    1b24:	48 8b 55 00          	mov    0x0(%rbp),%rdx
    1b28:	4c 89 4d f8          	mov    %r9,-0x8(%rbp)
    1b2c:	48 8d 5d e8          	lea    -0x18(%rbp),%rbx
    1b30:	4c 89 45 08          	mov    %r8,0x8(%rbp)
    1b34:	48 89 45 f0          	mov    %rax,-0x10(%rbp)
    1b38:	48 8b 44 24 18       	mov    0x18(%rsp),%rax
    1b3d:	48 89 55 e8          	mov    %rdx,-0x18(%rbp)
    1b41:	48 89 45 00          	mov    %rax,0x0(%rbp)
    1b45:	4d 8b 2f             	mov    (%r15),%r13
    1b48:	4d 85 ed             	test   %r13,%r13
    1b4b:	0f 84 80 0f 00 00    	je     2ad1 <__stubDIVINT+0x4a8>
    1b51:	48 8b 6c 24 48       	mov    0x48(%rsp),%rbp
    1b56:	4c 89 ee             	mov    %r13,%rsi
    1b59:	41 be 01 00 00 00    	mov    $0x1,%r14d
    1b5f:	48 89 ef             	mov    %rbp,%rdi
    1b62:	e8 00 00 00 00       	callq  1b67 <__stubAPPLY2+0x47>
    1b67:	48 8b 7c 24 10       	mov    0x10(%rsp),%rdi
    1b6c:	48 89 ee             	mov    %rbp,%rsi
    1b6f:	48 89 dd             	mov    %rbx,%rbp
    1b72:	e8 00 00 00 00       	callq  1b77 <__stubAPPLY2+0x57>
    1b77:	e9 f6 e5 ff ff       	jmpq   172 <caml_interprete+0x172>

0000000000001b7c <__stubPOP>:
    1b7c:	49 63 44 24 04       	movslq 0x4(%r12),%rax
    1b81:	49 83 c4 08          	add    $0x8,%r12
    1b85:	48 8d 6c c5 00       	lea    0x0(%rbp,%rax,8),%rbp
    1b8a:	e9 89 ea ff ff       	jmpq   618 <__stubPUSH+0xe>

0000000000001b8f <__stubASSIGN>:
    1b8f:	49 63 44 24 04       	movslq 0x4(%r12),%rax
    1b94:	49 83 c4 08          	add    $0x8,%r12
    1b98:	4c 89 7c c5 00       	mov    %r15,0x0(%rbp,%rax,8)
    1b9d:	41 bf 01 00 00 00    	mov    $0x1,%r15d
    1ba3:	e9 70 ea ff ff       	jmpq   618 <__stubPUSH+0xe>

0000000000001ba8 <__stubENVACC1>:
    1ba8:	48 8b 44 24 18       	mov    0x18(%rsp),%rax
    1bad:	4d 89 cc             	mov    %r9,%r12
    1bb0:	4c 8b 78 08          	mov    0x8(%rax),%r15
    1bb4:	e9 5f ea ff ff       	jmpq   618 <__stubPUSH+0xe>

0000000000001bb9 <__stubENVACC2>:
    1bb9:	48 8b 44 24 18       	mov    0x18(%rsp),%rax
    1bbe:	4d 89 cc             	mov    %r9,%r12
    1bc1:	4c 8b 78 10          	mov    0x10(%rax),%r15
    1bc5:	e9 4e ea ff ff       	jmpq   618 <__stubPUSH+0xe>

0000000000001bca <__stubENVACC3>:
    1bca:	48 8b 44 24 18       	mov    0x18(%rsp),%rax
    1bcf:	4d 89 cc             	mov    %r9,%r12
    1bd2:	4c 8b 78 18          	mov    0x18(%rax),%r15
    1bd6:	e9 3d ea ff ff       	jmpq   618 <__stubPUSH+0xe>

0000000000001bdb <__stubENVACC4>:
    1bdb:	48 8b 44 24 18       	mov    0x18(%rsp),%rax
    1be0:	4d 89 cc             	mov    %r9,%r12
    1be3:	4c 8b 78 20          	mov    0x20(%rax),%r15
    1be7:	e9 2c ea ff ff       	jmpq   618 <__stubPUSH+0xe>

0000000000001bec <__stubPUSHENVACC1>:
    1bec:	48 8b 44 24 18       	mov    0x18(%rsp),%rax
    1bf1:	4c 89 7d f8          	mov    %r15,-0x8(%rbp)
    1bf5:	4d 89 cc             	mov    %r9,%r12
    1bf8:	48 83 ed 08          	sub    $0x8,%rbp
    1bfc:	4c 8b 78 08          	mov    0x8(%rax),%r15
    1c00:	e9 13 ea ff ff       	jmpq   618 <__stubPUSH+0xe>

0000000000001c05 <__stubACC7>:
    1c05:	4c 8b 7d 38          	mov    0x38(%rbp),%r15
    1c09:	4d 89 cc             	mov    %r9,%r12
    1c0c:	e9 07 ea ff ff       	jmpq   618 <__stubPUSH+0xe>

0000000000001c11 <__stubSETGLOBAL>:
    1c11:	48 8b 05 00 00 00 00 	mov    0x0(%rip),%rax        # 1c18 <__stubSETGLOBAL+0x7>
    1c18:	49 63 54 24 04       	movslq 0x4(%r12),%rdx
    1c1d:	4c 89 fe             	mov    %r15,%rsi
    1c20:	49 83 c4 08          	add    $0x8,%r12
    1c24:	41 bf 01 00 00 00    	mov    $0x1,%r15d
    1c2a:	48 8d 3c d0          	lea    (%rax,%rdx,8),%rdi
    1c2e:	e8 00 00 00 00       	callq  1c33 <__stubSETGLOBAL+0x22>
    1c33:	e9 e0 e9 ff ff       	jmpq   618 <__stubPUSH+0xe>

0000000000001c38 <__stubRETURN>:
    1c38:	49 63 44 24 04       	movslq 0x4(%r12),%rax
    1c3d:	48 8d 6c c5 00       	lea    0x0(%rbp,%rax,8),%rbp
    1c42:	4d 85 f6             	test   %r14,%r14
    1c45:	0f 8e 95 0b 00 00    	jle    27e0 <__stubDIVINT+0x1b7>
    1c4b:	48 8b 7c 24 48       	mov    0x48(%rsp),%rdi
    1c50:	4d 8b 27             	mov    (%r15),%r12
    1c53:	49 83 ee 01          	sub    $0x1,%r14
    1c57:	e8 00 00 00 00       	callq  1c5c <__stubRETURN+0x24>
    1c5c:	4c 89 7c 24 18       	mov    %r15,0x18(%rsp)
    1c61:	e9 b2 e9 ff ff       	jmpq   618 <__stubPUSH+0xe>

0000000000001c66 <__stubRESTART>:
    1c66:	4c 8b 64 24 18       	mov    0x18(%rsp),%r12
    1c6b:	49 8b 44 24 f8       	mov    -0x8(%r12),%rax
    1c70:	48 c1 e8 0a          	shr    $0xa,%rax
    1c74:	8d 48 fd             	lea    -0x3(%rax),%ecx
    1c77:	8d 70 fc             	lea    -0x4(%rax),%esi
    1c7a:	31 c0                	xor    %eax,%eax
    1c7c:	48 63 d1             	movslq %ecx,%rdx
    1c7f:	48 c1 e2 03          	shl    $0x3,%rdx
    1c83:	48 29 d5             	sub    %rdx,%rbp
    1c86:	85 c9                	test   %ecx,%ecx
    1c88:	7e 1b                	jle    1ca5 <__stubRESTART+0x3f>
    1c8a:	8d 50 03             	lea    0x3(%rax),%edx
    1c8d:	48 63 d2             	movslq %edx,%rdx
    1c90:	49 8b 14 d4          	mov    (%r12,%rdx,8),%rdx
    1c94:	48 89 54 c5 00       	mov    %rdx,0x0(%rbp,%rax,8)
    1c99:	48 89 c2             	mov    %rax,%rdx
    1c9c:	48 83 c0 01          	add    $0x1,%rax
    1ca0:	48 39 f2             	cmp    %rsi,%rdx
    1ca3:	75 e5                	jne    1c8a <__stubRESTART+0x24>
    1ca5:	49 8b 44 24 10       	mov    0x10(%r12),%rax
    1caa:	48 63 c9             	movslq %ecx,%rcx
    1cad:	4d 89 cc             	mov    %r9,%r12
    1cb0:	49 01 ce             	add    %rcx,%r14
    1cb3:	48 89 44 24 18       	mov    %rax,0x18(%rsp)
    1cb8:	e9 5b e9 ff ff       	jmpq   618 <__stubPUSH+0xe>

0000000000001cbd <__stubPUSHCONST2>:
    1cbd:	4c 89 7d f8          	mov    %r15,-0x8(%rbp)
    1cc1:	4d 89 cc             	mov    %r9,%r12
    1cc4:	48 83 ed 08          	sub    $0x8,%rbp
    1cc8:	41 bf 05 00 00 00    	mov    $0x5,%r15d
    1cce:	e9 45 e9 ff ff       	jmpq   618 <__stubPUSH+0xe>

0000000000001cd3 <__stubPUSHENVACC3>:
    1cd3:	48 8b 44 24 18       	mov    0x18(%rsp),%rax
    1cd8:	4c 89 7d f8          	mov    %r15,-0x8(%rbp)
    1cdc:	4d 89 cc             	mov    %r9,%r12
    1cdf:	48 83 ed 08          	sub    $0x8,%rbp
    1ce3:	4c 8b 78 18          	mov    0x18(%rax),%r15
    1ce7:	e9 2c e9 ff ff       	jmpq   618 <__stubPUSH+0xe>

0000000000001cec <__stubPUSHENVACC4>:
    1cec:	48 8b 44 24 18       	mov    0x18(%rsp),%rax
    1cf1:	4c 89 7d f8          	mov    %r15,-0x8(%rbp)
    1cf5:	4d 89 cc             	mov    %r9,%r12
    1cf8:	48 83 ed 08          	sub    $0x8,%rbp
    1cfc:	4c 8b 78 20          	mov    0x20(%rax),%r15
    1d00:	e9 13 e9 ff ff       	jmpq   618 <__stubPUSH+0xe>

0000000000001d05 <__stubPUSH_RETADDR>:
    1d05:	49 63 44 24 04       	movslq 0x4(%r12),%rax
    1d0a:	48 83 ed 18          	sub    $0x18,%rbp
    1d0e:	4c 89 45 10          	mov    %r8,0x10(%rbp)
    1d12:	49 83 c4 08          	add    $0x8,%r12
    1d16:	49 8d 04 81          	lea    (%r9,%rax,4),%rax
    1d1a:	48 89 45 00          	mov    %rax,0x0(%rbp)
    1d1e:	48 8b 44 24 18       	mov    0x18(%rsp),%rax
    1d23:	48 89 45 08          	mov    %rax,0x8(%rbp)
    1d27:	e9 ec e8 ff ff       	jmpq   618 <__stubPUSH+0xe>

0000000000001d2c <__stubGRAB>:
    1d2c:	49 63 44 24 04       	movslq 0x4(%r12),%rax
    1d31:	49 8d 7c 24 08       	lea    0x8(%r12),%rdi
    1d36:	48 89 bc 24 78 01 00 	mov    %rdi,0x178(%rsp)
    1d3d:	00 
    1d3e:	4c 39 f0             	cmp    %r14,%rax
    1d41:	0f 8f fc 0b 00 00    	jg     2943 <__stubDIVINT+0x31a>
    1d47:	49 29 c6             	sub    %rax,%r14
    1d4a:	49 89 fc             	mov    %rdi,%r12
    1d4d:	e9 c6 e8 ff ff       	jmpq   618 <__stubPUSH+0xe>

0000000000001d52 <__stubPUSHENVACC2>:
    1d52:	48 8b 44 24 18       	mov    0x18(%rsp),%rax
    1d57:	4c 89 7d f8          	mov    %r15,-0x8(%rbp)
    1d5b:	4d 89 cc             	mov    %r9,%r12
    1d5e:	48 83 ed 08          	sub    $0x8,%rbp
    1d62:	4c 8b 78 10          	mov    0x10(%rax),%r15
    1d66:	e9 ad e8 ff ff       	jmpq   618 <__stubPUSH+0xe>

0000000000001d6b <__stubAPPLY3>:
    1d6b:	48 8b 45 10          	mov    0x10(%rbp),%rax
    1d6f:	48 8b 55 08          	mov    0x8(%rbp),%rdx
    1d73:	4c 89 45 10          	mov    %r8,0x10(%rbp)
    1d77:	48 8d 5d e8          	lea    -0x18(%rbp),%rbx
    1d7b:	48 8b 4d 00          	mov    0x0(%rbp),%rcx
    1d7f:	4c 89 4d 00          	mov    %r9,0x0(%rbp)
    1d83:	48 89 45 f8          	mov    %rax,-0x8(%rbp)
    1d87:	48 8b 44 24 18       	mov    0x18(%rsp),%rax
    1d8c:	48 89 4d e8          	mov    %rcx,-0x18(%rbp)
    1d90:	48 89 55 f0          	mov    %rdx,-0x10(%rbp)
    1d94:	48 89 45 08          	mov    %rax,0x8(%rbp)
    1d98:	4d 8b 2f             	mov    (%r15),%r13
    1d9b:	4d 85 ed             	test   %r13,%r13
    1d9e:	0f 84 78 0d 00 00    	je     2b1c <__stubDIVINT+0x4f3>
    1da4:	48 8b 6c 24 48       	mov    0x48(%rsp),%rbp
    1da9:	4c 89 ee             	mov    %r13,%rsi
    1dac:	41 be 02 00 00 00    	mov    $0x2,%r14d
    1db2:	48 89 ef             	mov    %rbp,%rdi
    1db5:	e8 00 00 00 00       	callq  1dba <__stubAPPLY3+0x4f>
    1dba:	48 8b 7c 24 10       	mov    0x10(%rsp),%rdi
    1dbf:	48 89 ee             	mov    %rbp,%rsi
    1dc2:	48 89 dd             	mov    %rbx,%rbp
    1dc5:	e8 00 00 00 00       	callq  1dca <__stubAPPLY3+0x5f>
    1dca:	e9 a3 e3 ff ff       	jmpq   172 <caml_interprete+0x172>

0000000000001dcf <__stubCLOSUREREC>:
    1dcf:	41 8b 44 24 04       	mov    0x4(%r12),%eax
    1dd4:	49 8d 7c 24 0c       	lea    0xc(%r12),%rdi
    1dd9:	48 89 bc 24 90 00 00 	mov    %rdi,0x90(%rsp)
    1de0:	00 
    1de1:	49 63 7c 24 08       	movslq 0x8(%r12),%rdi
    1de6:	89 84 24 8c 00 00 00 	mov    %eax,0x8c(%rsp)
    1ded:	8d 44 40 ff          	lea    -0x1(%rax,%rax,2),%eax
    1df1:	48 98                	cltq   
    1df3:	48 89 f9             	mov    %rdi,%rcx
    1df6:	48 89 bc 24 00 01 00 	mov    %rdi,0x100(%rsp)
    1dfd:	00 
    1dfe:	48 89 84 24 98 00 00 	mov    %rax,0x98(%rsp)
    1e05:	00 
    1e06:	48 01 c7             	add    %rax,%rdi
    1e09:	85 c9                	test   %ecx,%ecx
    1e0b:	7e 08                	jle    1e15 <__stubCLOSUREREC+0x46>
    1e0d:	4c 89 7d f8          	mov    %r15,-0x8(%rbp)
    1e11:	48 83 ed 08          	sub    $0x8,%rbp
    1e15:	48 81 ff 00 01 00 00 	cmp    $0x100,%rdi
    1e1c:	0f 87 bc 0d 00 00    	ja     2bde <__stubDIVINT+0x5b5>
    1e22:	48 85 ff             	test   %rdi,%rdi
    1e25:	0f 84 32 11 00 00    	je     2f5d <__stubDIVINT+0x934>
    1e2b:	48 8b 05 00 00 00 00 	mov    0x0(%rip),%rax        # 1e32 <__stubCLOSUREREC+0x63>
    1e32:	48 8d 34 fd 00 00 00 	lea    0x0(,%rdi,8),%rsi
    1e39:	00 
    1e3a:	64 48 8b 10          	mov    %fs:(%rax),%rdx
    1e3e:	48 c7 c0 f8 ff ff ff 	mov    $0xfffffffffffffff8,%rax
    1e45:	48 89 b4 24 08 01 00 	mov    %rsi,0x108(%rsp)
    1e4c:	00 
    1e4d:	48 29 f0             	sub    %rsi,%rax
    1e50:	89 8c 24 bc 01 00 00 	mov    %ecx,0x1bc(%rsp)
    1e57:	48 01 42 08          	add    %rax,0x8(%rdx)
    1e5b:	48 89 84 24 10 01 00 	mov    %rax,0x110(%rsp)
    1e62:	00 
    1e63:	48 8d 46 08          	lea    0x8(%rsi),%rax
    1e67:	48 89 84 24 18 01 00 	mov    %rax,0x118(%rsp)
    1e6e:	00 
    1e6f:	48 89 bc 24 c0 01 00 	mov    %rdi,0x1c0(%rsp)
    1e76:	00 
    1e77:	4c 89 ff             	mov    %r15,%rdi
    1e7a:	49 89 ef             	mov    %rbp,%r15
    1e7d:	48 89 d5             	mov    %rdx,%rbp
    1e80:	48 89 bc 24 f8 01 00 	mov    %rdi,0x1f8(%rsp)
    1e87:	00 
    1e88:	e8 00 00 00 00       	callq  1e8d <__stubCLOSUREREC+0xbe>
    1e8d:	48 8b 75 08          	mov    0x8(%rbp),%rsi
    1e91:	48 8b 45 00          	mov    0x0(%rbp),%rax
    1e95:	48 8b bc 24 f8 01 00 	mov    0x1f8(%rsp),%rdi
    1e9c:	00 
    1e9d:	48 39 c6             	cmp    %rax,%rsi
    1ea0:	0f 82 52 11 00 00    	jb     2ff8 <__stubDIVINT+0x9cf>
    1ea6:	48 8b bc 24 c0 01 00 	mov    0x1c0(%rsp),%rdi
    1ead:	00 
    1eae:	48 89 ea             	mov    %rbp,%rdx
    1eb1:	8b 8c 24 bc 01 00 00 	mov    0x1bc(%rsp),%ecx
    1eb8:	4c 89 fd             	mov    %r15,%rbp
    1ebb:	48 89 f8             	mov    %rdi,%rax
    1ebe:	48 c1 e0 0a          	shl    $0xa,%rax
    1ec2:	48 05 f7 00 00 00    	add    $0xf7,%rax
    1ec8:	48 89 06             	mov    %rax,(%rsi)
    1ecb:	48 8b 42 08          	mov    0x8(%rdx),%rax
    1ecf:	48 8b b4 24 08 01 00 	mov    0x108(%rsp),%rsi
    1ed6:	00 
    1ed7:	48 83 c0 08          	add    $0x8,%rax
    1edb:	49 89 c7             	mov    %rax,%r15
    1ede:	48 89 c7             	mov    %rax,%rdi
    1ee1:	48 01 c6             	add    %rax,%rsi
    1ee4:	48 89 c2             	mov    %rax,%rdx
    1ee7:	49 bb d7 d6 10 d7 d7 	movabs $0xd710d7d7d710d6d7,%r11
    1eee:	d7 10 d7 
    1ef1:	48 83 c2 08          	add    $0x8,%rdx
    1ef5:	4c 89 5a f8          	mov    %r11,-0x8(%rdx)
    1ef9:	48 39 d6             	cmp    %rdx,%rsi
    1efc:	75 e9                	jne    1ee7 <__stubCLOSUREREC+0x118>
    1efe:	48 8b b4 24 98 00 00 	mov    0x98(%rsp),%rsi
    1f05:	00 
    1f06:	48 8d 14 f7          	lea    (%rdi,%rsi,8),%rdx
    1f0a:	85 c9                	test   %ecx,%ecx
    1f0c:	7e 1f                	jle    1f2d <__stubCLOSUREREC+0x15e>
    1f0e:	83 e9 01             	sub    $0x1,%ecx
    1f11:	48 89 ee             	mov    %rbp,%rsi
    1f14:	48 8d 7c ca 08       	lea    0x8(%rdx,%rcx,8),%rdi
    1f19:	48 29 d6             	sub    %rdx,%rsi
    1f1c:	48 8b 0c 32          	mov    (%rdx,%rsi,1),%rcx
    1f20:	48 83 c2 08          	add    $0x8,%rdx
    1f24:	48 89 4a f8          	mov    %rcx,-0x8(%rdx)
    1f28:	48 39 fa             	cmp    %rdi,%rdx
    1f2b:	75 ef                	jne    1f1c <__stubCLOSUREREC+0x14d>
    1f2d:	48 8b bc 24 00 01 00 	mov    0x100(%rsp),%rdi
    1f34:	00 
    1f35:	4c 8b 8c 24 90 00 00 	mov    0x90(%rsp),%r9
    1f3c:	00 
    1f3d:	8b b4 24 8c 00 00 00 	mov    0x8c(%rsp),%esi
    1f44:	48 8d 54 fd 00       	lea    0x0(%rbp,%rdi,8),%rdx
    1f49:	48 8b bc 24 98 00 00 	mov    0x98(%rsp),%rdi
    1f50:	00 
    1f51:	4c 89 7a f8          	mov    %r15,-0x8(%rdx)
    1f55:	48 8d 6a f8          	lea    -0x8(%rdx),%rbp
    1f59:	49 63 54 24 0c       	movslq 0xc(%r12),%rdx
    1f5e:	49 8d 14 91          	lea    (%r9,%rdx,4),%rdx
    1f62:	48 89 10             	mov    %rdx,(%rax)
    1f65:	48 8d 54 3f 01       	lea    0x1(%rdi,%rdi,1),%rdx
    1f6a:	48 89 50 08          	mov    %rdx,0x8(%rax)
    1f6e:	83 fe 01             	cmp    $0x1,%esi
    1f71:	7e 69                	jle    1fdc <__stubCLOSUREREC+0x20d>
    1f73:	44 8d 04 76          	lea    (%rsi,%rsi,2),%r8d
    1f77:	48 83 c0 18          	add    $0x18,%rax
    1f7b:	4d 8d 5c 24 10       	lea    0x10(%r12),%r11
    1f80:	48 89 ee             	mov    %rbp,%rsi
    1f83:	48 8d 7c 3f fb       	lea    -0x5(%rdi,%rdi,1),%rdi
    1f88:	b9 03 00 00 00       	mov    $0x3,%ecx
    1f8d:	48 63 d1             	movslq %ecx,%rdx
    1f90:	48 83 ee 08          	sub    $0x8,%rsi
    1f94:	83 c1 03             	add    $0x3,%ecx
    1f97:	49 83 c3 04          	add    $0x4,%r11
    1f9b:	48 c1 e2 0a          	shl    $0xa,%rdx
    1f9f:	48 81 c2 f9 00 00 00 	add    $0xf9,%rdx
    1fa6:	48 89 50 f8          	mov    %rdx,-0x8(%rax)
    1faa:	48 89 06             	mov    %rax,(%rsi)
    1fad:	49 63 53 fc          	movslq -0x4(%r11),%rdx
    1fb1:	48 83 c0 18          	add    $0x18,%rax
    1fb5:	48 89 78 f0          	mov    %rdi,-0x10(%rax)
    1fb9:	48 83 ef 06          	sub    $0x6,%rdi
    1fbd:	49 8d 14 91          	lea    (%r9,%rdx,4),%rdx
    1fc1:	48 89 50 e8          	mov    %rdx,-0x18(%rax)
    1fc5:	41 39 c8             	cmp    %ecx,%r8d
    1fc8:	75 c3                	jne    1f8d <__stubCLOSUREREC+0x1be>
    1fca:	8b 84 24 8c 00 00 00 	mov    0x8c(%rsp),%eax
    1fd1:	83 e8 02             	sub    $0x2,%eax
    1fd4:	48 f7 d0             	not    %rax
    1fd7:	48 8d 6c c5 00       	lea    0x0(%rbp,%rax,8),%rbp
    1fdc:	48 63 84 24 8c 00 00 	movslq 0x8c(%rsp),%rax
    1fe3:	00 
    1fe4:	48 8b bc 24 90 00 00 	mov    0x90(%rsp),%rdi
    1feb:	00 
    1fec:	4c 8d 24 87          	lea    (%rdi,%rax,4),%r12
    1ff0:	e9 23 e6 ff ff       	jmpq   618 <__stubPUSH+0xe>

0000000000001ff5 <__stubGETVECTITEM>:
    1ff5:	48 8b 45 00          	mov    0x0(%rbp),%rax
    1ff9:	4d 89 cc             	mov    %r9,%r12
    1ffc:	48 83 c5 08          	add    $0x8,%rbp
    2000:	48 d1 f8             	sar    %rax
    2003:	4d 8b 3c c7          	mov    (%r15,%rax,8),%r15
    2007:	e9 0c e6 ff ff       	jmpq   618 <__stubPUSH+0xe>
    200c:	4c 89 8c 24 30 02 00 	mov    %r9,0x230(%rsp)
    2013:	00 

0000000000002014 <__stubSETVECTITEM>:
    2014:	48 8b 45 00          	mov    0x0(%rbp),%rax
    2018:	48 8b 75 08          	mov    0x8(%rbp),%rsi
    201c:	48 83 c5 10          	add    $0x10,%rbp
    2020:	48 d1 f8             	sar    %rax
    2023:	49 8d 3c c7          	lea    (%r15,%rax,8),%rdi
    2027:	41 bf 01 00 00 00    	mov    $0x1,%r15d
    202d:	e8 00 00 00 00       	callq  2032 <__stubSETVECTITEM+0x1e>
    2032:	4c 8b 8c 24 30 02 00 	mov    0x230(%rsp),%r9
    2039:	00 
    203a:	4d 89 cc             	mov    %r9,%r12
    203d:	e9 d6 e5 ff ff       	jmpq   618 <__stubPUSH+0xe>

0000000000002042 <__stubPUSHCONST0>:
    2042:	4c 89 7d f8          	mov    %r15,-0x8(%rbp)
    2046:	4d 89 cc             	mov    %r9,%r12
    2049:	48 83 ed 08          	sub    $0x8,%rbp
    204d:	41 bf 01 00 00 00    	mov    $0x1,%r15d
    2053:	e9 c0 e5 ff ff       	jmpq   618 <__stubPUSH+0xe>

0000000000002058 <__stubMAKEBLOCK1>:
    2058:	49 8d 44 24 08       	lea    0x8(%r12),%rax
    205d:	48 89 84 24 d8 00 00 	mov    %rax,0xd8(%rsp)
    2064:	00 
    2065:	41 8b 44 24 04       	mov    0x4(%r12),%eax
    206a:	89 84 24 6c 01 00 00 	mov    %eax,0x16c(%rsp)
    2071:	3d ff 00 00 00       	cmp    $0xff,%eax
    2076:	0f 87 9a 11 00 00    	ja     3216 <__stubDIVINT+0xbed>
    207c:	48 8b 05 00 00 00 00 	mov    0x0(%rip),%rax        # 2083 <__stubMAKEBLOCK1+0x2b>
    2083:	4d 89 fc             	mov    %r15,%r12
    2086:	64 48 8b 00          	mov    %fs:(%rax),%rax
    208a:	48 83 68 08 10       	subq   $0x10,0x8(%rax)
    208f:	49 89 c7             	mov    %rax,%r15
    2092:	e8 00 00 00 00       	callq  2097 <__stubMAKEBLOCK1+0x3f>
    2097:	49 8b 77 08          	mov    0x8(%r15),%rsi
    209b:	49 8b 07             	mov    (%r15),%rax
    209e:	48 39 c6             	cmp    %rax,%rsi
    20a1:	0f 82 7c 0c 00 00    	jb     2d23 <__stubDIVINT+0x6fa>
    20a7:	8b 94 24 6c 01 00 00 	mov    0x16c(%rsp),%edx
    20ae:	48 81 c2 00 04 00 00 	add    $0x400,%rdx
    20b5:	48 89 16             	mov    %rdx,(%rsi)
    20b8:	49 8b 47 08          	mov    0x8(%r15),%rax
    20bc:	4c 89 60 08          	mov    %r12,0x8(%rax)
    20c0:	4c 8d 78 08          	lea    0x8(%rax),%r15
    20c4:	4c 8b a4 24 d8 00 00 	mov    0xd8(%rsp),%r12
    20cb:	00 
    20cc:	e9 47 e5 ff ff       	jmpq   618 <__stubPUSH+0xe>

00000000000020d1 <__stubCONST1>:
    20d1:	41 bf 03 00 00 00    	mov    $0x3,%r15d
    20d7:	4d 89 cc             	mov    %r9,%r12
    20da:	e9 39 e5 ff ff       	jmpq   618 <__stubPUSH+0xe>

00000000000020df <__stubCONST2>:
    20df:	41 bf 05 00 00 00    	mov    $0x5,%r15d
    20e5:	4d 89 cc             	mov    %r9,%r12
    20e8:	e9 2b e5 ff ff       	jmpq   618 <__stubPUSH+0xe>
    20ed:	4c 89 8c 24 28 02 00 	mov    %r9,0x228(%rsp)
    20f4:	00 

00000000000020f5 <__stubSETFIELD3>:
    20f5:	48 8b 75 00          	mov    0x0(%rbp),%rsi
    20f9:	49 8d 7f 18          	lea    0x18(%r15),%rdi
    20fd:	4c 8d 65 08          	lea    0x8(%rbp),%r12
    2101:	41 bf 01 00 00 00    	mov    $0x1,%r15d
    2107:	4c 89 e5             	mov    %r12,%rbp
    210a:	e8 00 00 00 00       	callq  210f <__stubSETFIELD3+0x1a>
    210f:	4c 8b 8c 24 28 02 00 	mov    0x228(%rsp),%r9
    2116:	00 
    2117:	4d 89 cc             	mov    %r9,%r12
    211a:	e9 f9 e4 ff ff       	jmpq   618 <__stubPUSH+0xe>

000000000000211f <__stubSETFIELD>:
    211f:	48 8d 45 08          	lea    0x8(%rbp),%rax
    2123:	48 8b 75 00          	mov    0x0(%rbp),%rsi
    2127:	49 83 c4 08          	add    $0x8,%r12
    212b:	48 89 84 24 50 01 00 	mov    %rax,0x150(%rsp)
    2132:	00 
    2133:	49 63 44 24 fc       	movslq -0x4(%r12),%rax
    2138:	49 8d 3c c7          	lea    (%r15,%rax,8),%rdi
    213c:	41 bf 01 00 00 00    	mov    $0x1,%r15d
    2142:	e8 00 00 00 00       	callq  2147 <__stubSETFIELD+0x28>
    2147:	48 8b ac 24 50 01 00 	mov    0x150(%rsp),%rbp
    214e:	00 
    214f:	e9 c4 e4 ff ff       	jmpq   618 <__stubPUSH+0xe>

0000000000002154 <__stubSETFLOATFIELD>:
    2154:	48 8b 45 00          	mov    0x0(%rbp),%rax
    2158:	49 83 c4 08          	add    $0x8,%r12
    215c:	48 83 c5 08          	add    $0x8,%rbp
    2160:	f2 0f 10 00          	movsd  (%rax),%xmm0
    2164:	49 63 44 24 fc       	movslq -0x4(%r12),%rax
    2169:	f2 41 0f 11 04 c7    	movsd  %xmm0,(%r15,%rax,8)
    216f:	41 bf 01 00 00 00    	mov    $0x1,%r15d
    2175:	e9 9e e4 ff ff       	jmpq   618 <__stubPUSH+0xe>

000000000000217a <__stubVECTLENGTH>:
    217a:	49 8b 47 f8          	mov    -0x8(%r15),%rax
    217e:	4d 89 cc             	mov    %r9,%r12
    2181:	48 c1 e8 0a          	shr    $0xa,%rax
    2185:	4c 8d 7c 00 01       	lea    0x1(%rax,%rax,1),%r15
    218a:	e9 89 e4 ff ff       	jmpq   618 <__stubPUSH+0xe>
    218f:	4c 89 8c 24 18 02 00 	mov    %r9,0x218(%rsp)
    2196:	00 

0000000000002197 <__stubSETFIELD1>:
    2197:	48 8b 75 00          	mov    0x0(%rbp),%rsi
    219b:	49 8d 7f 08          	lea    0x8(%r15),%rdi
    219f:	4c 8d 65 08          	lea    0x8(%rbp),%r12
    21a3:	41 bf 01 00 00 00    	mov    $0x1,%r15d
    21a9:	4c 89 e5             	mov    %r12,%rbp
    21ac:	e8 00 00 00 00       	callq  21b1 <__stubSETFIELD1+0x1a>
    21b1:	4c 8b 8c 24 18 02 00 	mov    0x218(%rsp),%r9
    21b8:	00 
    21b9:	4d 89 cc             	mov    %r9,%r12
    21bc:	e9 57 e4 ff ff       	jmpq   618 <__stubPUSH+0xe>
    21c1:	4c 89 8c 24 20 02 00 	mov    %r9,0x220(%rsp)
    21c8:	00 

00000000000021c9 <__stubSETFIELD2>:
    21c9:	48 8b 75 00          	mov    0x0(%rbp),%rsi
    21cd:	49 8d 7f 10          	lea    0x10(%r15),%rdi
    21d1:	4c 8d 65 08          	lea    0x8(%rbp),%r12
    21d5:	41 bf 01 00 00 00    	mov    $0x1,%r15d
    21db:	4c 89 e5             	mov    %r12,%rbp
    21de:	e8 00 00 00 00       	callq  21e3 <__stubSETFIELD2+0x1a>
    21e3:	4c 8b 8c 24 20 02 00 	mov    0x220(%rsp),%r9
    21ea:	00 
    21eb:	4d 89 cc             	mov    %r9,%r12
    21ee:	e9 25 e4 ff ff       	jmpq   618 <__stubPUSH+0xe>

00000000000021f3 <__stubMAKEBLOCK2>:
    21f3:	49 8d 44 24 08       	lea    0x8(%r12),%rax
    21f8:	48 89 84 24 d0 00 00 	mov    %rax,0xd0(%rsp)
    21ff:	00 
    2200:	41 8b 44 24 04       	mov    0x4(%r12),%eax
    2205:	89 84 24 68 01 00 00 	mov    %eax,0x168(%rsp)
    220c:	3d ff 00 00 00       	cmp    $0xff,%eax
    2211:	0f 87 e7 0f 00 00    	ja     31fe <__stubDIVINT+0xbd5>
    2217:	48 8b 05 00 00 00 00 	mov    0x0(%rip),%rax        # 221e <__stubMAKEBLOCK2+0x2b>
    221e:	4d 89 fc             	mov    %r15,%r12
    2221:	64 48 8b 00          	mov    %fs:(%rax),%rax
    2225:	48 83 68 08 18       	subq   $0x18,0x8(%rax)
    222a:	49 89 c7             	mov    %rax,%r15
    222d:	e8 00 00 00 00       	callq  2232 <__stubMAKEBLOCK2+0x3f>
    2232:	49 8b 77 08          	mov    0x8(%r15),%rsi
    2236:	49 8b 07             	mov    (%r15),%rax
    2239:	48 39 c6             	cmp    %rax,%rsi
    223c:	0f 82 91 0a 00 00    	jb     2cd3 <__stubDIVINT+0x6aa>
    2242:	8b 94 24 68 01 00 00 	mov    0x168(%rsp),%edx
    2249:	48 83 c5 08          	add    $0x8,%rbp
    224d:	48 bf d7 d6 10 d7 d7 	movabs $0xd710d7d7d710d6d7,%rdi
    2254:	d7 10 d7 
    2257:	48 81 c2 00 08 00 00 	add    $0x800,%rdx
    225e:	48 89 16             	mov    %rdx,(%rsi)
    2261:	49 8b 47 08          	mov    0x8(%r15),%rax
    2265:	48 89 78 10          	mov    %rdi,0x10(%rax)
    2269:	4c 8d 78 08          	lea    0x8(%rax),%r15
    226d:	4c 89 60 08          	mov    %r12,0x8(%rax)
    2271:	48 8b 55 f8          	mov    -0x8(%rbp),%rdx
    2275:	4c 8b a4 24 d0 00 00 	mov    0xd0(%rsp),%r12
    227c:	00 
    227d:	48 89 50 10          	mov    %rdx,0x10(%rax)
    2281:	e9 92 e3 ff ff       	jmpq   618 <__stubPUSH+0xe>

0000000000002286 <__stubMAKEBLOCK3>:
    2286:	49 8d 44 24 08       	lea    0x8(%r12),%rax
    228b:	48 89 84 24 c8 00 00 	mov    %rax,0xc8(%rsp)
    2292:	00 
    2293:	41 8b 44 24 04       	mov    0x4(%r12),%eax
    2298:	89 84 24 64 01 00 00 	mov    %eax,0x164(%rsp)
    229f:	3d ff 00 00 00       	cmp    $0xff,%eax
    22a4:	0f 87 97 0b 00 00    	ja     2e41 <__stubDIVINT+0x818>
    22aa:	48 8b 05 00 00 00 00 	mov    0x0(%rip),%rax        # 22b1 <__stubMAKEBLOCK3+0x2b>
    22b1:	4d 89 fc             	mov    %r15,%r12
    22b4:	64 48 8b 00          	mov    %fs:(%rax),%rax
    22b8:	48 83 68 08 20       	subq   $0x20,0x8(%rax)
    22bd:	49 89 c7             	mov    %rax,%r15
    22c0:	e8 00 00 00 00       	callq  22c5 <__stubMAKEBLOCK3+0x3f>
    22c5:	49 8b 77 08          	mov    0x8(%r15),%rsi
    22c9:	49 8b 07             	mov    (%r15),%rax
    22cc:	48 39 c6             	cmp    %rax,%rsi
    22cf:	0f 82 ca 0a 00 00    	jb     2d9f <__stubDIVINT+0x776>
    22d5:	8b 94 24 64 01 00 00 	mov    0x164(%rsp),%edx
    22dc:	48 83 c5 10          	add    $0x10,%rbp
    22e0:	48 bf d7 d6 10 d7 d7 	movabs $0xd710d7d7d710d6d7,%rdi
    22e7:	d7 10 d7 
    22ea:	48 81 c2 00 0c 00 00 	add    $0xc00,%rdx
    22f1:	48 89 16             	mov    %rdx,(%rsi)
    22f4:	49 8b 47 08          	mov    0x8(%r15),%rax
    22f8:	48 89 78 10          	mov    %rdi,0x10(%rax)
    22fc:	4c 8d 78 08          	lea    0x8(%rax),%r15
    2300:	48 89 78 18          	mov    %rdi,0x18(%rax)
    2304:	4c 89 60 08          	mov    %r12,0x8(%rax)
    2308:	48 8b 55 f0          	mov    -0x10(%rbp),%rdx
    230c:	4c 8b a4 24 c8 00 00 	mov    0xc8(%rsp),%r12
    2313:	00 
    2314:	48 89 50 10          	mov    %rdx,0x10(%rax)
    2318:	48 8b 55 f8          	mov    -0x8(%rbp),%rdx
    231c:	48 89 50 18          	mov    %rdx,0x18(%rax)
    2320:	e9 f3 e2 ff ff       	jmpq   618 <__stubPUSH+0xe>

0000000000002325 <__stubMAKEFLOATBLOCK>:
    2325:	49 8d 44 24 08       	lea    0x8(%r12),%rax
    232a:	4d 63 64 24 04       	movslq 0x4(%r12),%r12
    232f:	48 89 84 24 80 00 00 	mov    %rax,0x80(%rsp)
    2336:	00 
    2337:	49 81 fc 00 01 00 00 	cmp    $0x100,%r12
    233e:	0f 87 ae 07 00 00    	ja     2af2 <__stubDIVINT+0x4c9>
    2344:	4d 85 e4             	test   %r12,%r12
    2347:	0f 84 93 0f 00 00    	je     32e0 <__stubDIVINT+0xcb7>
    234d:	48 8b 05 00 00 00 00 	mov    0x0(%rip),%rax        # 2354 <__stubMAKEFLOATBLOCK+0x2f>
    2354:	4a 8d 3c e5 00 00 00 	lea    0x0(,%r12,8),%rdi
    235b:	00 
    235c:	48 c7 c2 f8 ff ff ff 	mov    $0xfffffffffffffff8,%rdx
    2363:	48 29 fa             	sub    %rdi,%rdx
    2366:	64 48 8b 00          	mov    %fs:(%rax),%rax
    236a:	48 89 bc 24 38 01 00 	mov    %rdi,0x138(%rsp)
    2371:	00 
    2372:	48 83 c7 08          	add    $0x8,%rdi
    2376:	48 89 94 24 40 01 00 	mov    %rdx,0x140(%rsp)
    237d:	00 
    237e:	48 01 50 08          	add    %rdx,0x8(%rax)
    2382:	48 89 bc 24 48 01 00 	mov    %rdi,0x148(%rsp)
    2389:	00 
    238a:	4c 89 a4 24 90 01 00 	mov    %r12,0x190(%rsp)
    2391:	00 
    2392:	49 89 dc             	mov    %rbx,%r12
    2395:	48 89 c3             	mov    %rax,%rbx
    2398:	e8 00 00 00 00       	callq  239d <__stubMAKEFLOATBLOCK+0x78>
    239d:	48 8b 73 08          	mov    0x8(%rbx),%rsi
    23a1:	48 8b 13             	mov    (%rbx),%rdx
    23a4:	48 39 d6             	cmp    %rdx,%rsi
    23a7:	0f 82 a3 0e 00 00    	jb     3250 <__stubDIVINT+0xc27>
    23ad:	48 89 d8             	mov    %rbx,%rax
    23b0:	4c 89 e3             	mov    %r12,%rbx
    23b3:	4c 8b a4 24 90 01 00 	mov    0x190(%rsp),%r12
    23ba:	00 
    23bb:	4d 89 f8             	mov    %r15,%r8
    23be:	4c 89 e2             	mov    %r12,%rdx
    23c1:	48 c1 e2 0a          	shl    $0xa,%rdx
    23c5:	48 81 c2 fe 00 00 00 	add    $0xfe,%rdx
    23cc:	48 89 16             	mov    %rdx,(%rsi)
    23cf:	48 8b 78 08          	mov    0x8(%rax),%rdi
    23d3:	48 8b b4 24 38 01 00 	mov    0x138(%rsp),%rsi
    23da:	00 
    23db:	4c 8d 7f 08          	lea    0x8(%rdi),%r15
    23df:	48 89 f8             	mov    %rdi,%rax
    23e2:	4c 89 fa             	mov    %r15,%rdx
    23e5:	48 01 fe             	add    %rdi,%rsi
    23e8:	48 b9 d7 d6 10 d7 d7 	movabs $0xd710d7d7d710d6d7,%rcx
    23ef:	d7 10 d7 
    23f2:	48 83 c0 08          	add    $0x8,%rax
    23f6:	48 89 08             	mov    %rcx,(%rax)
    23f9:	48 39 c6             	cmp    %rax,%rsi
    23fc:	75 ea                	jne    23e8 <__stubMAKEFLOATBLOCK+0xc3>
    23fe:	f2 41 0f 10 00       	movsd  (%r8),%xmm0
    2403:	f2 0f 11 47 08       	movsd  %xmm0,0x8(%rdi)
    2408:	49 83 fc 01          	cmp    $0x1,%r12
    240c:	0f 86 61 09 00 00    	jbe    2d73 <__stubDIVINT+0x74a>
    2412:	48 83 c2 08          	add    $0x8,%rdx
    2416:	b8 01 00 00 00       	mov    $0x1,%eax
    241b:	48 8b 4c c5 f8       	mov    -0x8(%rbp,%rax,8),%rcx
    2420:	48 89 c6             	mov    %rax,%rsi
    2423:	48 83 c0 01          	add    $0x1,%rax
    2427:	48 83 c2 08          	add    $0x8,%rdx
    242b:	f2 0f 10 01          	movsd  (%rcx),%xmm0
    242f:	f2 0f 11 42 f8       	movsd  %xmm0,-0x8(%rdx)
    2434:	49 39 c4             	cmp    %rax,%r12
    2437:	75 e2                	jne    241b <__stubMAKEFLOATBLOCK+0xf6>
    2439:	4c 8b a4 24 80 00 00 	mov    0x80(%rsp),%r12
    2440:	00 
    2441:	48 8d 6c f5 00       	lea    0x0(%rbp,%rsi,8),%rbp
    2446:	e9 cd e1 ff ff       	jmpq   618 <__stubPUSH+0xe>

000000000000244b <__stubGETFIELD1>:
    244b:	4d 8b 7f 08          	mov    0x8(%r15),%r15
    244f:	4d 89 cc             	mov    %r9,%r12
    2452:	e9 c1 e1 ff ff       	jmpq   618 <__stubPUSH+0xe>

0000000000002457 <__stubGETFIELD2>:
    2457:	4d 8b 7f 10          	mov    0x10(%r15),%r15
    245b:	4d 89 cc             	mov    %r9,%r12
    245e:	e9 b5 e1 ff ff       	jmpq   618 <__stubPUSH+0xe>

0000000000002463 <__stubGETFIELD3>:
    2463:	4d 8b 7f 18          	mov    0x18(%r15),%r15
    2467:	4d 89 cc             	mov    %r9,%r12
    246a:	e9 a9 e1 ff ff       	jmpq   618 <__stubPUSH+0xe>

000000000000246f <__stubGETFIELD>:
    246f:	49 63 44 24 04       	movslq 0x4(%r12),%rax
    2474:	49 83 c4 08          	add    $0x8,%r12
    2478:	4d 8b 3c c7          	mov    (%r15,%rax,8),%r15
    247c:	e9 97 e1 ff ff       	jmpq   618 <__stubPUSH+0xe>

0000000000002481 <__stubGETFIELD0>:
    2481:	4d 8b 3f             	mov    (%r15),%r15
    2484:	4d 89 cc             	mov    %r9,%r12
    2487:	e9 8c e1 ff ff       	jmpq   618 <__stubPUSH+0xe>

000000000000248c <__stubMODINT>:
    248c:	48 8b 4d 00          	mov    0x0(%rbp),%rcx
    2490:	48 8d 75 08          	lea    0x8(%rbp),%rsi
    2494:	48 d1 f9             	sar    %rcx
    2497:	0f 84 6d 0e 00 00    	je     330a <__stubDIVINT+0xce1>
    249d:	4c 89 f8             	mov    %r15,%rax
    24a0:	48 89 f5             	mov    %rsi,%rbp
    24a3:	4d 89 cc             	mov    %r9,%r12
    24a6:	48 d1 f8             	sar    %rax
    24a9:	48 99                	cqto   
    24ab:	48 f7 f9             	idiv   %rcx
    24ae:	4c 8d 7c 12 01       	lea    0x1(%rdx,%rdx,1),%r15
    24b3:	e9 60 e1 ff ff       	jmpq   618 <__stubPUSH+0xe>

00000000000024b8 <__stubCONST0>:
    24b8:	41 bf 01 00 00 00    	mov    $0x1,%r15d
    24be:	4d 89 cc             	mov    %r9,%r12
    24c1:	e9 52 e1 ff ff       	jmpq   618 <__stubPUSH+0xe>

00000000000024c6 <__stubCONST3>:
    24c6:	41 bf 07 00 00 00    	mov    $0x7,%r15d
    24cc:	4d 89 cc             	mov    %r9,%r12
    24cf:	e9 44 e1 ff ff       	jmpq   618 <__stubPUSH+0xe>

00000000000024d4 <__stubCLOSURE>:
    24d4:	49 8d 44 24 08       	lea    0x8(%r12),%rax
    24d9:	48 89 84 24 e0 00 00 	mov    %rax,0xe0(%rsp)
    24e0:	00 
    24e1:	41 8b 44 24 04       	mov    0x4(%r12),%eax
    24e6:	89 84 24 88 00 00 00 	mov    %eax,0x88(%rsp)
    24ed:	85 c0                	test   %eax,%eax
    24ef:	7e 08                	jle    24f9 <__stubCLOSURE+0x25>
    24f1:	4c 89 7d f8          	mov    %r15,-0x8(%rbp)
    24f5:	48 83 ed 08          	sub    $0x8,%rbp
    24f9:	8b bc 24 88 00 00 00 	mov    0x88(%rsp),%edi
    2500:	8d 47 02             	lea    0x2(%rdi),%eax
    2503:	89 84 24 60 01 00 00 	mov    %eax,0x160(%rsp)
    250a:	81 ff fe 00 00 00    	cmp    $0xfe,%edi
    2510:	0f 8f a1 03 00 00    	jg     28b7 <__stubDIVINT+0x28e>
    2516:	85 c0                	test   %eax,%eax
    2518:	0f 8e c8 0c 00 00    	jle    31e6 <__stubDIVINT+0xbbd>
    251e:	8b bc 24 88 00 00 00 	mov    0x88(%rsp),%edi
    2525:	48 8b 05 00 00 00 00 	mov    0x0(%rip),%rax        # 252c <__stubCLOSURE+0x58>
    252c:	8d 57 03             	lea    0x3(%rdi),%edx
    252f:	64 48 8b 00          	mov    %fs:(%rax),%rax
    2533:	48 63 d2             	movslq %edx,%rdx
    2536:	48 8d 3c d5 00 00 00 	lea    0x0(,%rdx,8),%rdi
    253d:	00 
    253e:	48 29 78 08          	sub    %rdi,0x8(%rax)
    2542:	48 89 fe             	mov    %rdi,%rsi
    2545:	48 89 bc 24 f0 00 00 	mov    %rdi,0xf0(%rsp)
    254c:	00 
    254d:	4c 89 ff             	mov    %r15,%rdi
    2550:	49 89 df             	mov    %rbx,%r15
    2553:	48 f7 de             	neg    %rsi
    2556:	48 89 c3             	mov    %rax,%rbx
    2559:	48 89 f8             	mov    %rdi,%rax
    255c:	48 89 b4 24 f8 00 00 	mov    %rsi,0xf8(%rsp)
    2563:	00 
    2564:	48 89 84 24 f0 01 00 	mov    %rax,0x1f0(%rsp)
    256b:	00 
    256c:	e8 00 00 00 00       	callq  2571 <__stubCLOSURE+0x9d>
    2571:	48 8b 73 08          	mov    0x8(%rbx),%rsi
    2575:	48 8b 13             	mov    (%rbx),%rdx
    2578:	48 8b 84 24 f0 01 00 	mov    0x1f0(%rsp),%rax
    257f:	00 
    2580:	48 39 d6             	cmp    %rdx,%rsi
    2583:	0f 82 16 09 00 00    	jb     2e9f <__stubDIVINT+0x876>
    2589:	48 63 94 24 60 01 00 	movslq 0x160(%rsp),%rdx
    2590:	00 
    2591:	48 89 d8             	mov    %rbx,%rax
    2594:	4c 89 fb             	mov    %r15,%rbx
    2597:	48 89 d1             	mov    %rdx,%rcx
    259a:	48 c1 e1 0a          	shl    $0xa,%rcx
    259e:	48 81 c1 f7 00 00 00 	add    $0xf7,%rcx
    25a5:	48 89 0e             	mov    %rcx,(%rsi)
    25a8:	48 8b 70 08          	mov    0x8(%rax),%rsi
    25ac:	31 c0                	xor    %eax,%eax
    25ae:	48 8d 7e 08          	lea    0x8(%rsi),%rdi
    25b2:	49 89 ff             	mov    %rdi,%r15
    25b5:	48 89 f9             	mov    %rdi,%rcx
    25b8:	49 bb d7 d6 10 d7 d7 	movabs $0xd710d7d7d710d6d7,%r11
    25bf:	d7 10 d7 
    25c2:	4c 89 5c c6 08       	mov    %r11,0x8(%rsi,%rax,8)
    25c7:	48 83 c0 01          	add    $0x1,%rax
    25cb:	48 39 c2             	cmp    %rax,%rdx
    25ce:	75 e8                	jne    25b8 <__stubCLOSURE+0xe4>
    25d0:	8b 84 24 88 00 00 00 	mov    0x88(%rsp),%eax
    25d7:	85 c0                	test   %eax,%eax
    25d9:	7e 1c                	jle    25f7 <__stubCLOSURE+0x123>
    25db:	44 8d 40 ff          	lea    -0x1(%rax),%r8d
    25df:	31 c0                	xor    %eax,%eax
    25e1:	48 8b 54 c5 00       	mov    0x0(%rbp,%rax,8),%rdx
    25e6:	48 89 54 c6 18       	mov    %rdx,0x18(%rsi,%rax,8)
    25eb:	48 89 c2             	mov    %rax,%rdx
    25ee:	48 83 c0 01          	add    $0x1,%rax
    25f2:	49 39 d0             	cmp    %rdx,%r8
    25f5:	75 ea                	jne    25e1 <__stubCLOSURE+0x10d>
    25f7:	49 63 44 24 08       	movslq 0x8(%r12),%rax
    25fc:	48 8b b4 24 e0 00 00 	mov    0xe0(%rsp),%rsi
    2603:	00 
    2604:	49 83 c4 0c          	add    $0xc,%r12
    2608:	48 8d 04 86          	lea    (%rsi,%rax,4),%rax
    260c:	48 89 07             	mov    %rax,(%rdi)
    260f:	48 63 84 24 88 00 00 	movslq 0x88(%rsp),%rax
    2616:	00 
    2617:	48 c7 41 08 05 00 00 	movq   $0x5,0x8(%rcx)
    261e:	00 
    261f:	48 8d 6c c5 00       	lea    0x0(%rbp,%rax,8),%rbp
    2624:	e9 ef df ff ff       	jmpq   618 <__stubPUSH+0xe>

0000000000002629 <__stubDIVINT>:
    2629:	48 8b 4d 00          	mov    0x0(%rbp),%rcx
    262d:	48 8d 75 08          	lea    0x8(%rbp),%rsi
    2631:	48 d1 f9             	sar    %rcx
    2634:	0f 84 d0 0c 00 00    	je     330a <__stubDIVINT+0xce1>
    263a:	4c 89 f8             	mov    %r15,%rax
    263d:	48 89 f5             	mov    %rsi,%rbp
    2640:	4d 89 cc             	mov    %r9,%r12
    2643:	48 d1 f8             	sar    %rax
    2646:	48 99                	cqto   
    2648:	48 f7 f9             	idiv   %rcx
    264b:	4c 8d 7c 00 01       	lea    0x1(%rax,%rax,1),%r15
    2650:	e9 c3 df ff ff       	jmpq   618 <__stubPUSH+0xe>
    2655:	8d 70 fe             	lea    -0x2(%rax),%esi
    2658:	e9 e2 ec ff ff       	jmpq   133f <__stubGETDYNMET+0x2d>
    265d:	48 8b ac 24 88 01 00 	mov    0x188(%rsp),%rbp
    2664:	00 
    2665:	48 8b 44 24 20       	mov    0x20(%rsp),%rax
    266a:	48 8d 35 00 00 00 00 	lea    0x0(%rip),%rsi        # 2671 <__stubDIVINT+0x48>
    2671:	bf 01 00 00 00       	mov    $0x1,%edi
    2676:	45 31 e4             	xor    %r12d,%r12d
    2679:	48 8d 1d 00 00 00 00 	lea    0x0(%rip),%rbx        # 2680 <__stubDIVINT+0x57>
    2680:	48 8b 50 10          	mov    0x10(%rax),%rdx
    2684:	31 c0                	xor    %eax,%eax
    2686:	e8 00 00 00 00       	callq  268b <__stubDIVINT+0x62>
    268b:	4c 8b 74 24 48       	mov    0x48(%rsp),%r14
    2690:	48 8d 35 00 00 00 00 	lea    0x0(%rip),%rsi        # 2697 <__stubDIVINT+0x6e>
    2697:	31 c0                	xor    %eax,%eax
    2699:	bf 01 00 00 00       	mov    $0x1,%edi
    269e:	49 8b 56 08          	mov    0x8(%r14),%rdx
    26a2:	e8 00 00 00 00       	callq  26a7 <__stubDIVINT+0x7e>
    26a7:	49 8b 56 18          	mov    0x18(%r14),%rdx
    26ab:	bf 01 00 00 00       	mov    $0x1,%edi
    26b0:	31 c0                	xor    %eax,%eax
    26b2:	48 8d 35 00 00 00 00 	lea    0x0(%rip),%rsi        # 26b9 <__stubDIVINT+0x90>
    26b9:	e8 00 00 00 00       	callq  26be <__stubDIVINT+0x95>
    26be:	49 8b 56 10          	mov    0x10(%r14),%rdx
    26c2:	bf 01 00 00 00       	mov    $0x1,%edi
    26c7:	31 c0                	xor    %eax,%eax
    26c9:	48 8d 35 00 00 00 00 	lea    0x0(%rip),%rsi        # 26d0 <__stubDIVINT+0xa7>
    26d0:	e8 00 00 00 00       	callq  26d5 <__stubDIVINT+0xac>
    26d5:	49 8b 56 20          	mov    0x20(%r14),%rdx
    26d9:	31 c0                	xor    %eax,%eax
    26db:	bf 01 00 00 00       	mov    $0x1,%edi
    26e0:	48 8d 35 00 00 00 00 	lea    0x0(%rip),%rsi        # 26e7 <__stubDIVINT+0xbe>
    26e7:	e8 00 00 00 00       	callq  26ec <__stubDIVINT+0xc3>
    26ec:	31 c0                	xor    %eax,%eax
    26ee:	49 83 7e 08 00       	cmpq   $0x0,0x8(%r14)
    26f3:	4c 8b 6c 24 48       	mov    0x48(%rsp),%r13
    26f8:	75 22                	jne    271c <__stubDIVINT+0xf3>
    26fa:	eb 4d                	jmp    2749 <__stubDIVINT+0x120>
    26fc:	0f 1f 40 00          	nopl   0x0(%rax)
    2700:	48 89 de             	mov    %rbx,%rsi
    2703:	bf 01 00 00 00       	mov    $0x1,%edi
    2708:	31 c0                	xor    %eax,%eax
    270a:	e8 00 00 00 00       	callq  270f <__stubDIVINT+0xe6>
    270f:	41 83 c4 01          	add    $0x1,%r12d
    2713:	49 63 c4             	movslq %r12d,%rax
    2716:	49 3b 45 08          	cmp    0x8(%r13),%rax
    271a:	73 2d                	jae    2749 <__stubDIVINT+0x120>
    271c:	49 8b 55 00          	mov    0x0(%r13),%rdx
    2720:	49 8b 7d 20          	mov    0x20(%r13),%rdi
    2724:	48 8b 0c c2          	mov    (%rdx,%rax,8),%rcx
    2728:	48 8d 57 ff          	lea    -0x1(%rdi),%rdx
    272c:	48 39 c2             	cmp    %rax,%rdx
    272f:	44 89 e2             	mov    %r12d,%edx
    2732:	75 cc                	jne    2700 <__stubDIVINT+0xd7>
    2734:	48 8d 35 00 00 00 00 	lea    0x0(%rip),%rsi        # 273b <__stubDIVINT+0x112>
    273b:	bf 01 00 00 00       	mov    $0x1,%edi
    2740:	31 c0                	xor    %eax,%eax
    2742:	e8 00 00 00 00       	callq  2747 <__stubDIVINT+0x11e>
    2747:	eb c6                	jmp    270f <__stubDIVINT+0xe6>
    2749:	48 8b 44 24 30       	mov    0x30(%rsp),%rax
    274e:	48 8b 38             	mov    (%rax),%rdi
    2751:	e8 00 00 00 00       	callq  2756 <__stubDIVINT+0x12d>
    2756:	48 8b 7c 24 48       	mov    0x48(%rsp),%rdi
    275b:	e8 00 00 00 00       	callq  2760 <__stubDIVINT+0x137>
    2760:	48 8b 7c 24 10       	mov    0x10(%rsp),%rdi
    2765:	e8 00 00 00 00       	callq  276a <__stubDIVINT+0x141>
    276a:	48 8b 44 24 08       	mov    0x8(%rsp),%rax
    276f:	48 8b 5c 24 60       	mov    0x60(%rsp),%rbx
    2774:	48 89 98 e8 01 00 00 	mov    %rbx,0x1e8(%rax)
    277b:	48 8b 5c 24 68       	mov    0x68(%rsp),%rbx
    2780:	48 89 98 d8 01 00 00 	mov    %rbx,0x1d8(%rax)
    2787:	48 8b 40 20          	mov    0x20(%rax),%rax
    278b:	48 89 28             	mov    %rbp,(%rax)
    278e:	e9 71 e0 ff ff       	jmpq   804 <__stubGETGLOBAL+0x86>
    2793:	48 8b 05 00 00 00 00 	mov    0x0(%rip),%rax        # 279a <__stubDIVINT+0x171>
    279a:	4c 89 f5             	mov    %r14,%rbp
    279d:	48 8b 58 68          	mov    0x68(%rax),%rbx
    27a1:	e9 5a ed ff ff       	jmpq   1500 <__stubRAISE+0xd>
    27a6:	be 01 00 00 00       	mov    $0x1,%esi
    27ab:	bf 04 00 00 00       	mov    $0x4,%edi
    27b0:	e8 00 00 00 00       	callq  27b5 <__stubDIVINT+0x18c>
    27b5:	e9 5f ed ff ff       	jmpq   1519 <__stubRAISE+0x26>
    27ba:	49 83 c4 0c          	add    $0xc,%r12
    27be:	e9 55 de ff ff       	jmpq   618 <__stubPUSH+0xe>
    27c3:	49 83 c4 0c          	add    $0xc,%r12
    27c7:	e9 4c de ff ff       	jmpq   618 <__stubPUSH+0xe>
    27cc:	48 8b 44 24 08       	mov    0x8(%rsp),%rax
    27d1:	4c 89 fb             	mov    %r15,%rbx
    27d4:	48 8b 80 d8 01 00 00 	mov    0x1d8(%rax),%rax
    27db:	e9 34 d9 ff ff       	jmpq   114 <caml_interprete+0x114>
    27e0:	48 8b 7c 24 48       	mov    0x48(%rsp),%rdi
    27e5:	e8 00 00 00 00       	callq  27ea <__stubDIVINT+0x1c1>
    27ea:	48 8b 7b 20          	mov    0x20(%rbx),%rdi
    27ee:	4c 8b 65 00          	mov    0x0(%rbp),%r12
    27f2:	48 39 6f 10          	cmp    %rbp,0x10(%rdi)
    27f6:	0f 84 5d 06 00 00    	je     2e59 <__stubDIVINT+0x830>
    27fc:	48 8b 45 08          	mov    0x8(%rbp),%rax
    2800:	4c 8b 75 10          	mov    0x10(%rbp),%r14
    2804:	48 83 c5 18          	add    $0x18,%rbp
    2808:	48 89 44 24 18       	mov    %rax,0x18(%rsp)
    280d:	49 d1 fe             	sar    %r14
    2810:	e9 03 de ff ff       	jmpq   618 <__stubPUSH+0xe>
    2815:	49 83 c4 0c          	add    $0xc,%r12
    2819:	e9 fa dd ff ff       	jmpq   618 <__stubPUSH+0xe>
    281e:	8b 0e                	mov    (%rsi),%ecx
    2820:	ba 03 00 00 00       	mov    $0x3,%edx
    2825:	eb 20                	jmp    2847 <__stubDIVINT+0x21e>
    2827:	66 0f 1f 84 00 00 00 	nopw   0x0(%rax,%rax,1)
    282e:	00 00 
    2830:	8d 04 0a             	lea    (%rdx,%rcx,1),%eax
    2833:	d1 f8                	sar    %eax
    2835:	83 c8 01             	or     $0x1,%eax
    2838:	4c 63 d0             	movslq %eax,%r10
    283b:	4b 39 3c d1          	cmp    %rdi,(%r9,%r10,8)
    283f:	0f 8f 83 03 00 00    	jg     2bc8 <__stubDIVINT+0x59f>
    2845:	89 c2                	mov    %eax,%edx
    2847:	39 ca                	cmp    %ecx,%edx
    2849:	7c e5                	jl     2830 <__stubDIVINT+0x207>
    284b:	8d 04 d5 e8 ff ff ff 	lea    -0x18(,%rdx,8),%eax
    2852:	41 89 44 24 08       	mov    %eax,0x8(%r12)
    2857:	8d 42 ff             	lea    -0x1(%rdx),%eax
    285a:	48 98                	cltq   
    285c:	4c 8b 3c c6          	mov    (%rsi,%rax,8),%r15
    2860:	e9 a1 ea ff ff       	jmpq   1306 <__stubGETPUBMET+0x32>
    2865:	49 83 c4 0c          	add    $0xc,%r12
    2869:	e9 aa dd ff ff       	jmpq   618 <__stubPUSH+0xe>
    286e:	4c 89 fa             	mov    %r15,%rdx
    2871:	0f b7 c0             	movzwl %ax,%eax
    2874:	48 d1 fa             	sar    %rdx
    2877:	48 39 d0             	cmp    %rdx,%rax
    287a:	0f 86 4e 09 00 00    	jbe    31ce <__stubDIVINT+0xba5>
    2880:	48 63 04 91          	movslq (%rcx,%rdx,4),%rax
    2884:	4c 8d 24 81          	lea    (%rcx,%rax,4),%r12
    2888:	e9 8b dd ff ff       	jmpq   618 <__stubPUSH+0xe>
    288d:	49 83 c4 0c          	add    $0xc,%r12
    2891:	e9 82 dd ff ff       	jmpq   618 <__stubPUSH+0xe>
    2896:	49 83 c4 0c          	add    $0xc,%r12
    289a:	e9 79 dd ff ff       	jmpq   618 <__stubPUSH+0xe>
    289f:	49 83 c4 0c          	add    $0xc,%r12
    28a3:	e9 70 dd ff ff       	jmpq   618 <__stubPUSH+0xe>
    28a8:	49 63 44 24 08       	movslq 0x8(%r12),%rax
    28ad:	4d 8d 64 84 08       	lea    0x8(%r12,%rax,4),%r12
    28b2:	e9 61 dd ff ff       	jmpq   618 <__stubPUSH+0xe>
    28b7:	48 63 bc 24 60 01 00 	movslq 0x160(%rsp),%rdi
    28be:	00 
    28bf:	be f7 00 00 00       	mov    $0xf7,%esi
    28c4:	e8 00 00 00 00       	callq  28c9 <__stubDIVINT+0x2a0>
    28c9:	4c 89 a4 24 c8 01 00 	mov    %r12,0x1c8(%rsp)
    28d0:	00 
    28d1:	49 89 c7             	mov    %rax,%r15
    28d4:	8b 84 24 88 00 00 00 	mov    0x88(%rsp),%eax
    28db:	48 89 9c 24 d0 01 00 	mov    %rbx,0x1d0(%rsp)
    28e2:	00 
    28e3:	4c 89 fb             	mov    %r15,%rbx
    28e6:	83 e8 01             	sub    $0x1,%eax
    28e9:	48 89 84 24 a8 00 00 	mov    %rax,0xa8(%rsp)
    28f0:	00 
    28f1:	31 c0                	xor    %eax,%eax
    28f3:	49 89 c4             	mov    %rax,%r12
    28f6:	eb 0b                	jmp    2903 <__stubDIVINT+0x2da>
    28f8:	0f 1f 84 00 00 00 00 	nopl   0x0(%rax,%rax,1)
    28ff:	00 
    2900:	49 89 d4             	mov    %rdx,%r12
    2903:	41 8d 54 24 02       	lea    0x2(%r12),%edx
    2908:	4a 8b 74 e5 00       	mov    0x0(%rbp,%r12,8),%rsi
    290d:	48 63 d2             	movslq %edx,%rdx
    2910:	48 8d 3c d3          	lea    (%rbx,%rdx,8),%rdi
    2914:	e8 00 00 00 00       	callq  2919 <__stubDIVINT+0x2f0>
    2919:	49 8d 54 24 01       	lea    0x1(%r12),%rdx
    291e:	4c 39 a4 24 a8 00 00 	cmp    %r12,0xa8(%rsp)
    2925:	00 
    2926:	75 d8                	jne    2900 <__stubDIVINT+0x2d7>
    2928:	48 89 d9             	mov    %rbx,%rcx
    292b:	4c 8b a4 24 c8 01 00 	mov    0x1c8(%rsp),%r12
    2932:	00 
    2933:	4c 89 ff             	mov    %r15,%rdi
    2936:	48 8b 9c 24 d0 01 00 	mov    0x1d0(%rsp),%rbx
    293d:	00 
    293e:	e9 b4 fc ff ff       	jmpq   25f7 <__stubCLOSURE+0x123>
    2943:	49 8d 46 01          	lea    0x1(%r14),%rax
    2947:	48 89 84 24 80 01 00 	mov    %rax,0x180(%rsp)
    294e:	00 
    294f:	49 83 fe fc          	cmp    $0xfffffffffffffffc,%r14
    2953:	0f 84 d5 08 00 00    	je     322e <__stubDIVINT+0xc05>
    2959:	48 83 c2 04          	add    $0x4,%rdx
    295d:	48 81 fa 00 01 00 00 	cmp    $0x100,%rdx
    2964:	0f 87 4c 08 00 00    	ja     31b6 <__stubDIVINT+0xb8d>
    296a:	48 8b 05 00 00 00 00 	mov    0x0(%rip),%rax        # 2971 <__stubDIVINT+0x348>
    2971:	48 8d 0c d5 00 00 00 	lea    0x0(,%rdx,8),%rcx
    2978:	00 
    2979:	49 c7 c6 f8 ff ff ff 	mov    $0xfffffffffffffff8,%r14
    2980:	4c 89 fe             	mov    %r15,%rsi
    2983:	49 29 ce             	sub    %rcx,%r14
    2986:	48 8d 79 08          	lea    0x8(%rcx),%rdi
    298a:	49 89 ef             	mov    %rbp,%r15
    298d:	64 48 8b 00          	mov    %fs:(%rax),%rax
    2991:	48 89 bc 24 e8 00 00 	mov    %rdi,0xe8(%rsp)
    2998:	00 
    2999:	48 89 94 24 d8 01 00 	mov    %rdx,0x1d8(%rsp)
    29a0:	00 
    29a1:	4c 01 70 08          	add    %r14,0x8(%rax)
    29a5:	48 89 c5             	mov    %rax,%rbp
    29a8:	48 89 8c 24 e0 01 00 	mov    %rcx,0x1e0(%rsp)
    29af:	00 
    29b0:	48 89 b4 24 e8 01 00 	mov    %rsi,0x1e8(%rsp)
    29b7:	00 
    29b8:	e8 00 00 00 00       	callq  29bd <__stubDIVINT+0x394>
    29bd:	48 8b 7d 08          	mov    0x8(%rbp),%rdi
    29c1:	48 8b 55 00          	mov    0x0(%rbp),%rdx
    29c5:	48 8b b4 24 e8 01 00 	mov    0x1e8(%rsp),%rsi
    29cc:	00 
    29cd:	48 39 d7             	cmp    %rdx,%rdi
    29d0:	0f 82 8c 07 00 00    	jb     3162 <__stubDIVINT+0xb39>
    29d6:	48 8b 94 24 d8 01 00 	mov    0x1d8(%rsp),%rdx
    29dd:	00 
    29de:	48 89 e8             	mov    %rbp,%rax
    29e1:	4c 89 fd             	mov    %r15,%rbp
    29e4:	48 8b 8c 24 e0 01 00 	mov    0x1e0(%rsp),%rcx
    29eb:	00 
    29ec:	48 89 d6             	mov    %rdx,%rsi
    29ef:	48 c1 e6 0a          	shl    $0xa,%rsi
    29f3:	48 81 c6 f7 00 00 00 	add    $0xf7,%rsi
    29fa:	48 89 37             	mov    %rsi,(%rdi)
    29fd:	48 8b 70 08          	mov    0x8(%rax),%rsi
    2a01:	4c 8d 7e 08          	lea    0x8(%rsi),%r15
    2a05:	4c 89 f8             	mov    %r15,%rax
    2a08:	48 85 d2             	test   %rdx,%rdx
    2a0b:	74 1f                	je     2a2c <__stubDIVINT+0x403>
    2a0d:	48 8d 7c 0e 08       	lea    0x8(%rsi,%rcx,1),%rdi
    2a12:	4c 89 fa             	mov    %r15,%rdx
    2a15:	49 bb d7 d6 10 d7 d7 	movabs $0xd710d7d7d710d6d7,%r11
    2a1c:	d7 10 d7 
    2a1f:	48 83 c2 08          	add    $0x8,%rdx
    2a23:	4c 89 5a f8          	mov    %r11,-0x8(%rdx)
    2a27:	48 39 d7             	cmp    %rdx,%rdi
    2a2a:	75 e9                	jne    2a15 <__stubDIVINT+0x3ec>
    2a2c:	48 8b 7c 24 18       	mov    0x18(%rsp),%rdi
    2a31:	48 8d 50 18          	lea    0x18(%rax),%rdx
    2a35:	4c 8d 04 01          	lea    (%rcx,%rax,1),%r8
    2a39:	48 89 78 10          	mov    %rdi,0x10(%rax)
    2a3d:	48 89 ef             	mov    %rbp,%rdi
    2a40:	48 29 c7             	sub    %rax,%rdi
    2a43:	48 83 bc 24 80 01 00 	cmpq   $0x0,0x180(%rsp)
    2a4a:	00 00 
    2a4c:	74 12                	je     2a60 <__stubDIVINT+0x437>
    2a4e:	4c 8b 4c 17 e8       	mov    -0x18(%rdi,%rdx,1),%r9
    2a53:	48 83 c2 08          	add    $0x8,%rdx
    2a57:	4c 89 4a f8          	mov    %r9,-0x8(%rdx)
    2a5b:	49 39 d0             	cmp    %rdx,%r8
    2a5e:	75 ee                	jne    2a4e <__stubDIVINT+0x425>
    2a60:	4d 8d 5c 24 fc       	lea    -0x4(%r12),%r11
    2a65:	48 8d 6c 0d e8       	lea    -0x18(%rbp,%rcx,1),%rbp
    2a6a:	4c 89 5e 08          	mov    %r11,0x8(%rsi)
    2a6e:	48 c7 40 08 05 00 00 	movq   $0x5,0x8(%rax)
    2a75:	00 
    2a76:	e9 6f fd ff ff       	jmpq   27ea <__stubDIVINT+0x1c1>
    2a7b:	be 01 00 00 00       	mov    $0x1,%esi
    2a80:	bf 04 00 00 00       	mov    $0x4,%edi
    2a85:	e8 00 00 00 00       	callq  2a8a <__stubDIVINT+0x461>
    2a8a:	e9 b2 e5 ff ff       	jmpq   1041 <__stubRERAISE+0x19>
    2a8f:	48 8d 0d 00 00 00 00 	lea    0x0(%rip),%rcx        # 2a96 <__stubDIVINT+0x46d>
    2a96:	31 d2                	xor    %edx,%edx
    2a98:	bf 01 00 00 00       	mov    $0x1,%edi
    2a9d:	31 c0                	xor    %eax,%eax
    2a9f:	48 8d 35 00 00 00 00 	lea    0x0(%rip),%rsi        # 2aa6 <__stubDIVINT+0x47d>
    2aa6:	e8 00 00 00 00       	callq  2aab <__stubDIVINT+0x482>
    2aab:	e9 fd ef ff ff       	jmpq   1aad <__stubAPPLY+0x17>
    2ab0:	48 8d 0d 00 00 00 00 	lea    0x0(%rip),%rcx        # 2ab7 <__stubDIVINT+0x48e>
    2ab7:	31 d2                	xor    %edx,%edx
    2ab9:	bf 01 00 00 00       	mov    $0x1,%edi
    2abe:	31 c0                	xor    %eax,%eax
    2ac0:	48 8d 35 00 00 00 00 	lea    0x0(%rip),%rsi        # 2ac7 <__stubDIVINT+0x49e>
    2ac7:	e8 00 00 00 00       	callq  2acc <__stubDIVINT+0x4a3>
    2acc:	e9 27 f0 ff ff       	jmpq   1af8 <__stubAPPLY1+0x29>
    2ad1:	48 8d 0d 00 00 00 00 	lea    0x0(%rip),%rcx        # 2ad8 <__stubDIVINT+0x4af>
    2ad8:	31 d2                	xor    %edx,%edx
    2ada:	bf 01 00 00 00       	mov    $0x1,%edi
    2adf:	31 c0                	xor    %eax,%eax
    2ae1:	48 8d 35 00 00 00 00 	lea    0x0(%rip),%rsi        # 2ae8 <__stubDIVINT+0x4bf>
    2ae8:	e8 00 00 00 00       	callq  2aed <__stubDIVINT+0x4c4>
    2aed:	e9 5f f0 ff ff       	jmpq   1b51 <__stubAPPLY2+0x31>
    2af2:	be fe 00 00 00       	mov    $0xfe,%esi
    2af7:	4c 89 e7             	mov    %r12,%rdi
    2afa:	e8 00 00 00 00       	callq  2aff <__stubDIVINT+0x4d6>
    2aff:	f2 41 0f 10 07       	movsd  (%r15),%xmm0
    2b04:	48 89 c2             	mov    %rax,%rdx
    2b07:	49 89 c7             	mov    %rax,%r15
    2b0a:	f2 0f 11 00          	movsd  %xmm0,(%rax)
    2b0e:	e9 ff f8 ff ff       	jmpq   2412 <__stubMAKEFLOATBLOCK+0xed>
    2b13:	49 83 c4 08          	add    $0x8,%r12
    2b17:	e9 fc da ff ff       	jmpq   618 <__stubPUSH+0xe>
    2b1c:	48 8d 0d 00 00 00 00 	lea    0x0(%rip),%rcx        # 2b23 <__stubDIVINT+0x4fa>
    2b23:	31 d2                	xor    %edx,%edx
    2b25:	bf 01 00 00 00       	mov    $0x1,%edi
    2b2a:	31 c0                	xor    %eax,%eax
    2b2c:	48 8d 35 00 00 00 00 	lea    0x0(%rip),%rsi        # 2b33 <__stubDIVINT+0x50a>
    2b33:	e8 00 00 00 00       	callq  2b38 <__stubDIVINT+0x50f>
    2b38:	e9 67 f2 ff ff       	jmpq   1da4 <__stubAPPLY3+0x39>
    2b3d:	48 89 d7             	mov    %rdx,%rdi
    2b40:	44 89 e6             	mov    %r12d,%esi
    2b43:	48 89 94 24 08 02 00 	mov    %rdx,0x208(%rsp)
    2b4a:	00 
    2b4b:	e8 00 00 00 00       	callq  2b50 <__stubDIVINT+0x527>
    2b50:	4c 89 fe             	mov    %r15,%rsi
    2b53:	41 bf 01 00 00 00    	mov    $0x1,%r15d
    2b59:	48 89 c7             	mov    %rax,%rdi
    2b5c:	49 89 c4             	mov    %rax,%r12
    2b5f:	e8 00 00 00 00       	callq  2b64 <__stubDIVINT+0x53b>
    2b64:	48 8b 94 24 08 02 00 	mov    0x208(%rsp),%rdx
    2b6b:	00 
    2b6c:	4c 89 e8             	mov    %r13,%rax
    2b6f:	4c 89 a4 24 b0 00 00 	mov    %r12,0xb0(%rsp)
    2b76:	00 
    2b77:	48 89 9c 24 98 01 00 	mov    %rbx,0x198(%rsp)
    2b7e:	00 
    2b7f:	4d 89 e5             	mov    %r12,%r13
    2b82:	4d 89 fc             	mov    %r15,%r12
    2b85:	49 89 c7             	mov    %rax,%r15
    2b88:	48 89 d3             	mov    %rdx,%rbx
    2b8b:	48 8b 84 24 b0 00 00 	mov    0xb0(%rsp),%rax
    2b92:	00 
    2b93:	48 8b 75 00          	mov    0x0(%rbp),%rsi
    2b97:	48 83 c5 08          	add    $0x8,%rbp
    2b9b:	4a 8d 3c e0          	lea    (%rax,%r12,8),%rdi
    2b9f:	49 83 c4 01          	add    $0x1,%r12
    2ba3:	e8 00 00 00 00       	callq  2ba8 <__stubDIVINT+0x57f>
    2ba8:	4c 39 e3             	cmp    %r12,%rbx
    2bab:	75 de                	jne    2b8b <__stubDIVINT+0x562>
    2bad:	4d 89 ec             	mov    %r13,%r12
    2bb0:	48 8b 9c 24 98 01 00 	mov    0x198(%rsp),%rbx
    2bb7:	00 
    2bb8:	4d 89 fd             	mov    %r15,%r13
    2bbb:	4d 89 e7             	mov    %r12,%r15
    2bbe:	4c 8b 64 24 78       	mov    0x78(%rsp),%r12
    2bc3:	e9 50 da ff ff       	jmpq   618 <__stubPUSH+0xe>
    2bc8:	8d 48 fe             	lea    -0x2(%rax),%ecx
    2bcb:	e9 77 fc ff ff       	jmpq   2847 <__stubDIVINT+0x21e>
    2bd0:	49 63 44 24 04       	movslq 0x4(%r12),%rax
    2bd5:	4d 8d 24 81          	lea    (%r9,%rax,4),%r12
    2bd9:	e9 3a da ff ff       	jmpq   618 <__stubPUSH+0xe>
    2bde:	be f7 00 00 00       	mov    $0xf7,%esi
    2be3:	89 8c 24 78 02 00 00 	mov    %ecx,0x278(%rsp)
    2bea:	e8 00 00 00 00       	callq  2bef <__stubDIVINT+0x5c6>
    2bef:	8b 8c 24 78 02 00 00 	mov    0x278(%rsp),%ecx
    2bf6:	49 89 c7             	mov    %rax,%r15
    2bf9:	48 8b 84 24 98 00 00 	mov    0x98(%rsp),%rax
    2c00:	00 
    2c01:	49 8d 04 c7          	lea    (%r15,%rax,8),%rax
    2c05:	85 c9                	test   %ecx,%ecx
    2c07:	7e 56                	jle    2c5f <__stubDIVINT+0x636>
    2c09:	8d 51 ff             	lea    -0x1(%rcx),%edx
    2c0c:	48 89 ac 24 a8 01 00 	mov    %rbp,0x1a8(%rsp)
    2c13:	00 
    2c14:	48 8d 7c d0 08       	lea    0x8(%rax,%rdx,8),%rdi
    2c19:	48 89 ea             	mov    %rbp,%rdx
    2c1c:	48 89 9c 24 b0 01 00 	mov    %rbx,0x1b0(%rsp)
    2c23:	00 
    2c24:	48 89 c3             	mov    %rax,%rbx
    2c27:	48 89 bc 24 a0 00 00 	mov    %rdi,0xa0(%rsp)
    2c2e:	00 
    2c2f:	48 29 c2             	sub    %rax,%rdx
    2c32:	48 89 d5             	mov    %rdx,%rbp
    2c35:	48 8b 34 2b          	mov    (%rbx,%rbp,1),%rsi
    2c39:	48 89 df             	mov    %rbx,%rdi
    2c3c:	48 83 c3 08          	add    $0x8,%rbx
    2c40:	e8 00 00 00 00       	callq  2c45 <__stubDIVINT+0x61c>
    2c45:	48 3b 9c 24 a0 00 00 	cmp    0xa0(%rsp),%rbx
    2c4c:	00 
    2c4d:	75 e6                	jne    2c35 <__stubDIVINT+0x60c>
    2c4f:	48 8b ac 24 a8 01 00 	mov    0x1a8(%rsp),%rbp
    2c56:	00 
    2c57:	48 8b 9c 24 b0 01 00 	mov    0x1b0(%rsp),%rbx
    2c5e:	00 
    2c5f:	4c 89 f8             	mov    %r15,%rax
    2c62:	e9 c6 f2 ff ff       	jmpq   1f2d <__stubCLOSUREREC+0x15e>
    2c67:	48 8b 44 24 18       	mov    0x18(%rsp),%rax
    2c6c:	48 83 43 08 10       	addq   $0x10,0x8(%rbx)
    2c71:	49 8d 55 e8          	lea    -0x18(%r13),%rdx
    2c75:	49 89 75 e8          	mov    %rsi,-0x18(%r13)
    2c79:	49 89 45 f0          	mov    %rax,-0x10(%r13)
    2c7d:	48 8b 44 24 08       	mov    0x8(%rsp),%rax
    2c82:	49 89 6d f8          	mov    %rbp,-0x8(%r13)
    2c86:	48 8b 40 20          	mov    0x20(%rax),%rax
    2c8a:	48 89 10             	mov    %rdx,(%rax)
    2c8d:	e8 00 00 00 00       	callq  2c92 <__stubDIVINT+0x669>
    2c92:	48 8b 44 24 08       	mov    0x8(%rsp),%rax
    2c97:	48 8b 40 20          	mov    0x20(%rax),%rax
    2c9b:	48 8b 10             	mov    (%rax),%rdx
    2c9e:	48 8b 42 08          	mov    0x8(%rdx),%rax
    2ca2:	48 8b 32             	mov    (%rdx),%rsi
    2ca5:	4c 8d 6a 18          	lea    0x18(%rdx),%r13
    2ca9:	48 83 6b 08 10       	subq   $0x10,0x8(%rbx)
    2cae:	48 89 44 24 18       	mov    %rax,0x18(%rsp)
    2cb3:	e9 0c de ff ff       	jmpq   ac4 <__stubPERFORM+0x39>
    2cb8:	48 8b 05 00 00 00 00 	mov    0x0(%rip),%rax        # 2cbf <__stubDIVINT+0x696>
    2cbf:	48 8b 58 60          	mov    0x60(%rax),%rbx
    2cc3:	e9 38 e8 ff ff       	jmpq   1500 <__stubRAISE+0xd>
    2cc8:	4d 89 e5             	mov    %r12,%r13
    2ccb:	4d 89 c4             	mov    %r8,%r12
    2cce:	e9 f6 d4 ff ff       	jmpq   1c9 <__stubCHECK_SIGNALS+0x39>
    2cd3:	48 8b 44 24 18       	mov    0x18(%rsp),%rax
    2cd8:	49 83 47 08 18       	addq   $0x18,0x8(%r15)
    2cdd:	48 83 ed 18          	sub    $0x18,%rbp
    2ce1:	4c 89 65 00          	mov    %r12,0x0(%rbp)
    2ce5:	48 89 45 08          	mov    %rax,0x8(%rbp)
    2ce9:	48 8b 84 24 d0 00 00 	mov    0xd0(%rsp),%rax
    2cf0:	00 
    2cf1:	48 89 45 10          	mov    %rax,0x10(%rbp)
    2cf5:	48 8b 43 20          	mov    0x20(%rbx),%rax
    2cf9:	48 89 28             	mov    %rbp,(%rax)
    2cfc:	e8 00 00 00 00       	callq  2d01 <__stubDIVINT+0x6d8>
    2d01:	48 8b 43 20          	mov    0x20(%rbx),%rax
    2d05:	48 8b 28             	mov    (%rax),%rbp
    2d08:	48 8b 45 08          	mov    0x8(%rbp),%rax
    2d0c:	4c 8b 65 00          	mov    0x0(%rbp),%r12
    2d10:	48 83 c5 18          	add    $0x18,%rbp
    2d14:	49 83 6f 08 18       	subq   $0x18,0x8(%r15)
    2d19:	48 89 44 24 18       	mov    %rax,0x18(%rsp)
    2d1e:	e9 0a f5 ff ff       	jmpq   222d <__stubMAKEBLOCK2+0x3a>
    2d23:	48 8b 44 24 18       	mov    0x18(%rsp),%rax
    2d28:	49 83 47 08 10       	addq   $0x10,0x8(%r15)
    2d2d:	48 83 ed 18          	sub    $0x18,%rbp
    2d31:	4c 89 65 00          	mov    %r12,0x0(%rbp)
    2d35:	48 89 45 08          	mov    %rax,0x8(%rbp)
    2d39:	48 8b 84 24 d8 00 00 	mov    0xd8(%rsp),%rax
    2d40:	00 
    2d41:	48 89 45 10          	mov    %rax,0x10(%rbp)
    2d45:	48 8b 43 20          	mov    0x20(%rbx),%rax
    2d49:	48 89 28             	mov    %rbp,(%rax)
    2d4c:	e8 00 00 00 00       	callq  2d51 <__stubDIVINT+0x728>
    2d51:	48 8b 43 20          	mov    0x20(%rbx),%rax
    2d55:	48 8b 28             	mov    (%rax),%rbp
    2d58:	48 8b 45 08          	mov    0x8(%rbp),%rax
    2d5c:	4c 8b 65 00          	mov    0x0(%rbp),%r12
    2d60:	48 83 c5 18          	add    $0x18,%rbp
    2d64:	49 83 6f 08 10       	subq   $0x10,0x8(%r15)
    2d69:	48 89 44 24 18       	mov    %rax,0x18(%rsp)
    2d6e:	e9 1f f3 ff ff       	jmpq   2092 <__stubMAKEBLOCK1+0x3a>
    2d73:	4c 8b a4 24 80 00 00 	mov    0x80(%rsp),%r12
    2d7a:	00 
    2d7b:	e9 98 d8 ff ff       	jmpq   618 <__stubPUSH+0xe>
    2d80:	e8 00 00 00 00       	callq  2d85 <__stubDIVINT+0x75c>
    2d85:	48 8b 35 00 00 00 00 	mov    0x0(%rip),%rsi        # 2d8c <__stubDIVINT+0x763>
    2d8c:	49 89 c7             	mov    %rax,%r15
    2d8f:	48 8b 05 00 00 00 00 	mov    0x0(%rip),%rax        # 2d96 <__stubDIVINT+0x76d>
    2d96:	48 8b 78 60          	mov    0x60(%rax),%rdi
    2d9a:	e9 41 dc ff ff       	jmpq   9e0 <__stubRESUMETERM+0x34>
    2d9f:	48 8b 44 24 18       	mov    0x18(%rsp),%rax
    2da4:	49 83 47 08 20       	addq   $0x20,0x8(%r15)
    2da9:	48 83 ed 18          	sub    $0x18,%rbp
    2dad:	4c 89 65 00          	mov    %r12,0x0(%rbp)
    2db1:	48 89 45 08          	mov    %rax,0x8(%rbp)
    2db5:	48 8b 84 24 c8 00 00 	mov    0xc8(%rsp),%rax
    2dbc:	00 
    2dbd:	48 89 45 10          	mov    %rax,0x10(%rbp)
    2dc1:	48 8b 43 20          	mov    0x20(%rbx),%rax
    2dc5:	48 89 28             	mov    %rbp,(%rax)
    2dc8:	e8 00 00 00 00       	callq  2dcd <__stubDIVINT+0x7a4>
    2dcd:	48 8b 43 20          	mov    0x20(%rbx),%rax
    2dd1:	48 8b 28             	mov    (%rax),%rbp
    2dd4:	48 8b 45 08          	mov    0x8(%rbp),%rax
    2dd8:	4c 8b 65 00          	mov    0x0(%rbp),%r12
    2ddc:	48 83 c5 18          	add    $0x18,%rbp
    2de0:	49 83 6f 08 20       	subq   $0x20,0x8(%r15)
    2de5:	48 89 44 24 18       	mov    %rax,0x18(%rsp)
    2dea:	e9 d1 f4 ff ff       	jmpq   22c0 <__stubMAKEBLOCK3+0x3a>
    2def:	48 8b 44 24 18       	mov    0x18(%rsp),%rax
    2df4:	49 83 44 24 08 10    	addq   $0x10,0x8(%r12)
    2dfa:	48 83 ed 18          	sub    $0x18,%rbp
    2dfe:	4c 89 7d 00          	mov    %r15,0x0(%rbp)
    2e02:	48 89 45 08          	mov    %rax,0x8(%rbp)
    2e06:	48 8b 84 24 c0 00 00 	mov    0xc0(%rsp),%rax
    2e0d:	00 
    2e0e:	48 89 45 10          	mov    %rax,0x10(%rbp)
    2e12:	48 8b 43 20          	mov    0x20(%rbx),%rax
    2e16:	48 89 28             	mov    %rbp,(%rax)
    2e19:	e8 00 00 00 00       	callq  2e1e <__stubDIVINT+0x7f5>
    2e1e:	48 8b 43 20          	mov    0x20(%rbx),%rax
    2e22:	48 8b 28             	mov    (%rax),%rbp
    2e25:	48 8b 45 08          	mov    0x8(%rbp),%rax
    2e29:	4c 8b 7d 00          	mov    0x0(%rbp),%r15
    2e2d:	48 83 c5 18          	add    $0x18,%rbp
    2e31:	49 83 6c 24 08 10    	subq   $0x10,0x8(%r12)
    2e37:	48 89 44 24 18       	mov    %rax,0x18(%rsp)
    2e3c:	e9 e2 eb ff ff       	jmpq   1a23 <__stubGETFLOATFIELD+0x32>
    2e41:	ba b2 05 00 00       	mov    $0x5b2,%edx
    2e46:	48 8d 35 00 00 00 00 	lea    0x0(%rip),%rsi        # 2e4d <__stubDIVINT+0x824>
    2e4d:	48 8d 3d 00 00 00 00 	lea    0x0(%rip),%rdi        # 2e54 <__stubDIVINT+0x82b>
    2e54:	e8 00 00 00 00       	callq  2e59 <__stubDIVINT+0x830>
    2e59:	48 8b 45 18          	mov    0x18(%rbp),%rax
    2e5d:	48 85 c0             	test   %rax,%rax
    2e60:	0f 84 df 00 00 00    	je     2f45 <__stubDIVINT+0x91c>
    2e66:	4c 8b 74 24 08       	mov    0x8(%rsp),%r14
    2e6b:	49 89 46 20          	mov    %rax,0x20(%r14)
    2e6f:	48 8b 18             	mov    (%rax),%rbx
    2e72:	48 8d 6b 08          	lea    0x8(%rbx),%rbp
    2e76:	e8 00 00 00 00       	callq  2e7b <__stubDIVINT+0x852>
    2e7b:	48 8b 03             	mov    (%rbx),%rax
    2e7e:	48 d1 f8             	sar    %rax
    2e81:	49 89 86 d8 01 00 00 	mov    %rax,0x1d8(%r14)
    2e88:	4c 8b 73 08          	mov    0x8(%rbx),%r14
    2e8c:	4c 89 7b 08          	mov    %r15,0x8(%rbx)
    2e90:	4d 89 e7             	mov    %r12,%r15
    2e93:	4d 8b 2c 24          	mov    (%r12),%r13
    2e97:	49 d1 fe             	sar    %r14
    2e9a:	e9 d3 d2 ff ff       	jmpq   172 <caml_interprete+0x172>
    2e9f:	48 8b bc 24 f0 00 00 	mov    0xf0(%rsp),%rdi
    2ea6:	00 
    2ea7:	48 01 7b 08          	add    %rdi,0x8(%rbx)
    2eab:	48 83 ed 18          	sub    $0x18,%rbp
    2eaf:	48 89 45 00          	mov    %rax,0x0(%rbp)
    2eb3:	48 8b 44 24 18       	mov    0x18(%rsp),%rax
    2eb8:	48 89 45 08          	mov    %rax,0x8(%rbp)
    2ebc:	48 8b 84 24 e0 00 00 	mov    0xe0(%rsp),%rax
    2ec3:	00 
    2ec4:	48 89 45 10          	mov    %rax,0x10(%rbp)
    2ec8:	49 8b 47 20          	mov    0x20(%r15),%rax
    2ecc:	48 89 28             	mov    %rbp,(%rax)
    2ecf:	e8 00 00 00 00       	callq  2ed4 <__stubDIVINT+0x8ab>
    2ed4:	49 8b 47 20          	mov    0x20(%r15),%rax
    2ed8:	48 8b 28             	mov    (%rax),%rbp
    2edb:	48 8b 7d 08          	mov    0x8(%rbp),%rdi
    2edf:	48 8b 45 00          	mov    0x0(%rbp),%rax
    2ee3:	48 83 c5 18          	add    $0x18,%rbp
    2ee7:	48 89 7c 24 18       	mov    %rdi,0x18(%rsp)
    2eec:	48 8b bc 24 f8 00 00 	mov    0xf8(%rsp),%rdi
    2ef3:	00 
    2ef4:	48 01 7b 08          	add    %rdi,0x8(%rbx)
    2ef8:	e9 67 f6 ff ff       	jmpq   2564 <__stubCLOSURE+0x90>
    2efd:	ba 00 01 00 00       	mov    $0x100,%edx
    2f02:	48 8d 35 00 00 00 00 	lea    0x0(%rip),%rsi        # 2f09 <__stubDIVINT+0x8e0>
    2f09:	48 8d 3d 00 00 00 00 	lea    0x0(%rip),%rdi        # 2f10 <__stubDIVINT+0x8e7>
    2f10:	e8 00 00 00 00       	callq  2f15 <__stubDIVINT+0x8ec>
    2f15:	ba 7a 08 00 00       	mov    $0x87a,%edx
    2f1a:	48 8d 35 00 00 00 00 	lea    0x0(%rip),%rsi        # 2f21 <__stubDIVINT+0x8f8>
    2f21:	48 8d 3d 00 00 00 00 	lea    0x0(%rip),%rdi        # 2f28 <__stubDIVINT+0x8ff>
    2f28:	e8 00 00 00 00       	callq  2f2d <__stubDIVINT+0x904>
    2f2d:	ba 05 01 00 00       	mov    $0x105,%edx
    2f32:	48 8d 35 00 00 00 00 	lea    0x0(%rip),%rsi        # 2f39 <__stubDIVINT+0x910>
    2f39:	48 8d 3d 00 00 00 00 	lea    0x0(%rip),%rdi        # 2f40 <__stubDIVINT+0x917>
    2f40:	e8 00 00 00 00       	callq  2f45 <__stubDIVINT+0x91c>
    2f45:	ba b8 04 00 00       	mov    $0x4b8,%edx
    2f4a:	48 8d 35 00 00 00 00 	lea    0x0(%rip),%rsi        # 2f51 <__stubDIVINT+0x928>
    2f51:	48 8d 3d 00 00 00 00 	lea    0x0(%rip),%rdi        # 2f58 <__stubDIVINT+0x92f>
    2f58:	e8 00 00 00 00       	callq  2f5d <__stubDIVINT+0x934>
    2f5d:	ba 18 05 00 00       	mov    $0x518,%edx
    2f62:	48 8d 35 00 00 00 00 	lea    0x0(%rip),%rsi        # 2f69 <__stubDIVINT+0x940>
    2f69:	48 8d 3d 00 00 00 00 	lea    0x0(%rip),%rdi        # 2f70 <__stubDIVINT+0x947>
    2f70:	e8 00 00 00 00       	callq  2f75 <__stubDIVINT+0x94c>
    2f75:	ba 05 08 00 00       	mov    $0x805,%edx
    2f7a:	48 8d 35 00 00 00 00 	lea    0x0(%rip),%rsi        # 2f81 <__stubDIVINT+0x958>
    2f81:	48 8d 3d 00 00 00 00 	lea    0x0(%rip),%rdi        # 2f88 <__stubDIVINT+0x95f>
    2f88:	e8 00 00 00 00       	callq  2f8d <__stubDIVINT+0x964>
    2f8d:	ba 05 08 00 00       	mov    $0x805,%edx
    2f92:	48 8d 35 00 00 00 00 	lea    0x0(%rip),%rsi        # 2f99 <__stubDIVINT+0x970>
    2f99:	48 8d 3d 00 00 00 00 	lea    0x0(%rip),%rdi        # 2fa0 <__stubDIVINT+0x977>
    2fa0:	e8 00 00 00 00       	callq  2fa5 <__stubDIVINT+0x97c>
    2fa5:	ba 05 08 00 00       	mov    $0x805,%edx
    2faa:	48 8d 35 00 00 00 00 	lea    0x0(%rip),%rsi        # 2fb1 <__stubDIVINT+0x988>
    2fb1:	48 8d 3d 00 00 00 00 	lea    0x0(%rip),%rdi        # 2fb8 <__stubDIVINT+0x98f>
    2fb8:	e8 00 00 00 00       	callq  2fbd <__stubDIVINT+0x994>
    2fbd:	ba fd 07 00 00       	mov    $0x7fd,%edx
    2fc2:	48 8d 35 00 00 00 00 	lea    0x0(%rip),%rsi        # 2fc9 <__stubDIVINT+0x9a0>
    2fc9:	48 8d 3d 00 00 00 00 	lea    0x0(%rip),%rdi        # 2fd0 <__stubDIVINT+0x9a7>
    2fd0:	e8 00 00 00 00       	callq  2fd5 <__stubDIVINT+0x9ac>
    2fd5:	ba fd 07 00 00       	mov    $0x7fd,%edx
    2fda:	48 8d 35 00 00 00 00 	lea    0x0(%rip),%rsi        # 2fe1 <__stubDIVINT+0x9b8>
    2fe1:	48 8d 3d 00 00 00 00 	lea    0x0(%rip),%rdi        # 2fe8 <__stubDIVINT+0x9bf>
    2fe8:	e8 00 00 00 00       	callq  2fed <__stubDIVINT+0x9c4>
    2fed:	e8 00 00 00 00       	callq  2ff2 <__stubDIVINT+0x9c9>
    2ff2:	66 0f 1f 44 00 00    	nopw   0x0(%rax,%rax,1)
    2ff8:	48 8b 84 24 18 01 00 	mov    0x118(%rsp),%rax
    2fff:	00 
    3000:	48 01 45 08          	add    %rax,0x8(%rbp)
    3004:	49 83 ef 18          	sub    $0x18,%r15
    3008:	48 8b 44 24 18       	mov    0x18(%rsp),%rax
    300d:	49 89 3f             	mov    %rdi,(%r15)
    3010:	49 89 47 08          	mov    %rax,0x8(%r15)
    3014:	48 8b 84 24 90 00 00 	mov    0x90(%rsp),%rax
    301b:	00 
    301c:	49 89 47 10          	mov    %rax,0x10(%r15)
    3020:	48 8b 43 20          	mov    0x20(%rbx),%rax
    3024:	4c 89 38             	mov    %r15,(%rax)
    3027:	e8 00 00 00 00       	callq  302c <__stubDIVINT+0xa03>
    302c:	48 8b 43 20          	mov    0x20(%rbx),%rax
    3030:	48 8b 00             	mov    (%rax),%rax
    3033:	48 8b 70 08          	mov    0x8(%rax),%rsi
    3037:	48 8b 38             	mov    (%rax),%rdi
    303a:	4c 8d 78 18          	lea    0x18(%rax),%r15
    303e:	48 8b 84 24 10 01 00 	mov    0x110(%rsp),%rax
    3045:	00 
    3046:	48 01 45 08          	add    %rax,0x8(%rbp)
    304a:	48 89 74 24 18       	mov    %rsi,0x18(%rsp)
    304f:	e9 2c ee ff ff       	jmpq   1e80 <__stubCLOSUREREC+0xb1>
    3054:	48 8b 44 24 08       	mov    0x8(%rsp),%rax
    3059:	4d 8d 4d 04          	lea    0x4(%r13),%r9
    305d:	4c 89 7d f0          	mov    %r15,-0x10(%rbp)
    3061:	48 8d 55 f0          	lea    -0x10(%rbp),%rdx
    3065:	4c 89 4d f8          	mov    %r9,-0x8(%rbp)
    3069:	48 8b 40 20          	mov    0x20(%rax),%rax
    306d:	48 89 10             	mov    %rdx,(%rax)
    3070:	e8 00 00 00 00       	callq  3075 <__stubDIVINT+0xa4c>
    3075:	48 8b 0d 00 00 00 00 	mov    0x0(%rip),%rcx        # 307c <__stubDIVINT+0xa53>
    307c:	ba 28 00 00 00       	mov    $0x28,%edx
    3081:	be 01 00 00 00       	mov    $0x1,%esi
    3086:	48 8d 3d 00 00 00 00 	lea    0x0(%rip),%rdi        # 308d <__stubDIVINT+0xa64>
    308d:	e8 00 00 00 00       	callq  3092 <__stubDIVINT+0xa69>
    3092:	ba 24 00 00 00       	mov    $0x24,%edx
    3097:	48 8b 0d 00 00 00 00 	mov    0x0(%rip),%rcx        # 309e <__stubDIVINT+0xa75>
    309e:	be 01 00 00 00       	mov    $0x1,%esi
    30a3:	48 8d 3d 00 00 00 00 	lea    0x0(%rip),%rdi        # 30aa <__stubDIVINT+0xa81>
    30aa:	e8 00 00 00 00       	callq  30af <__stubDIVINT+0xa86>
    30af:	bf 01 00 00 00       	mov    $0x1,%edi
    30b4:	e8 00 00 00 00       	callq  30b9 <__stubDIVINT+0xa90>
    30b9:	48 8b 0d 00 00 00 00 	mov    0x0(%rip),%rcx        # 30c0 <__stubDIVINT+0xa97>
    30c0:	ba 29 00 00 00       	mov    $0x29,%edx
    30c5:	be 01 00 00 00       	mov    $0x1,%esi
    30ca:	48 8d 3d 00 00 00 00 	lea    0x0(%rip),%rdi        # 30d1 <__stubDIVINT+0xaa8>
    30d1:	e8 00 00 00 00       	callq  30d6 <__stubDIVINT+0xaad>
    30d6:	eb d7                	jmp    30af <__stubDIVINT+0xa86>
    30d8:	48 8d 0d 00 00 00 00 	lea    0x0(%rip),%rcx        # 30df <__stubDIVINT+0xab6>
    30df:	ba 64 02 00 00       	mov    $0x264,%edx
    30e4:	48 8d 35 00 00 00 00 	lea    0x0(%rip),%rsi        # 30eb <__stubDIVINT+0xac2>
    30eb:	48 8d 3d 00 00 00 00 	lea    0x0(%rip),%rdi        # 30f2 <__stubDIVINT+0xac9>
    30f2:	e8 00 00 00 00       	callq  30f7 <__stubDIVINT+0xace>
    30f7:	48 8b 0d 00 00 00 00 	mov    0x0(%rip),%rcx        # 30fe <__stubDIVINT+0xad5>
    30fe:	ba 22 00 00 00       	mov    $0x22,%edx
    3103:	be 01 00 00 00       	mov    $0x1,%esi
    3108:	48 8d 3d 00 00 00 00 	lea    0x0(%rip),%rdi        # 310f <__stubDIVINT+0xae6>
    310f:	e8 00 00 00 00       	callq  3114 <__stubDIVINT+0xaeb>
    3114:	eb 99                	jmp    30af <__stubDIVINT+0xa86>
    3116:	66 2e 0f 1f 84 00 00 	nopw   %cs:0x0(%rax,%rax,1)
    311d:	00 00 00 
    3120:	ba 76 03 00 00       	mov    $0x376,%edx
    3125:	48 8d 35 00 00 00 00 	lea    0x0(%rip),%rsi        # 312c <__stubDIVINT+0xb03>
    312c:	48 8d 3d 00 00 00 00 	lea    0x0(%rip),%rdi        # 3133 <__stubDIVINT+0xb0a>
    3133:	e8 00 00 00 00       	callq  3138 <__stubDIVINT+0xb0f>
    3138:	49 63 34 24          	movslq (%r12),%rsi
    313c:	48 8d 3d 00 00 00 00 	lea    0x0(%rip),%rdi        # 3143 <__stubDIVINT+0xb1a>
    3143:	31 c0                	xor    %eax,%eax
    3145:	e8 00 00 00 00       	callq  314a <__stubDIVINT+0xb21>
    314a:	ba 75 03 00 00       	mov    $0x375,%edx
    314f:	48 8d 35 00 00 00 00 	lea    0x0(%rip),%rsi        # 3156 <__stubDIVINT+0xb2d>
    3156:	48 8d 3d 00 00 00 00 	lea    0x0(%rip),%rdi        # 315d <__stubDIVINT+0xb34>
    315d:	e8 00 00 00 00       	callq  3162 <__stubDIVINT+0xb39>
    3162:	48 8b 84 24 e8 00 00 	mov    0xe8(%rsp),%rax
    3169:	00 
    316a:	48 01 45 08          	add    %rax,0x8(%rbp)
    316e:	49 83 ef 18          	sub    $0x18,%r15
    3172:	48 8b 44 24 18       	mov    0x18(%rsp),%rax
    3177:	49 89 37             	mov    %rsi,(%r15)
    317a:	49 89 47 08          	mov    %rax,0x8(%r15)
    317e:	48 8b 84 24 78 01 00 	mov    0x178(%rsp),%rax
    3185:	00 
    3186:	49 89 47 10          	mov    %rax,0x10(%r15)
    318a:	48 8b 53 20          	mov    0x20(%rbx),%rdx
    318e:	4c 89 3a             	mov    %r15,(%rdx)
    3191:	e8 00 00 00 00       	callq  3196 <__stubDIVINT+0xb6d>
    3196:	48 8b 53 20          	mov    0x20(%rbx),%rdx
    319a:	48 8b 12             	mov    (%rdx),%rdx
    319d:	48 8b 42 08          	mov    0x8(%rdx),%rax
    31a1:	48 8b 32             	mov    (%rdx),%rsi
    31a4:	4c 8d 7a 18          	lea    0x18(%rdx),%r15
    31a8:	4c 01 75 08          	add    %r14,0x8(%rbp)
    31ac:	48 89 44 24 18       	mov    %rax,0x18(%rsp)
    31b1:	e9 fa f7 ff ff       	jmpq   29b0 <__stubDIVINT+0x387>
    31b6:	ba e6 04 00 00       	mov    $0x4e6,%edx
    31bb:	48 8d 35 00 00 00 00 	lea    0x0(%rip),%rsi        # 31c2 <__stubDIVINT+0xb99>
    31c2:	48 8d 3d 00 00 00 00 	lea    0x0(%rip),%rdi        # 31c9 <__stubDIVINT+0xba0>
    31c9:	e8 00 00 00 00       	callq  31ce <__stubDIVINT+0xba5>
    31ce:	ba 47 06 00 00       	mov    $0x647,%edx
    31d3:	48 8d 35 00 00 00 00 	lea    0x0(%rip),%rsi        # 31da <__stubDIVINT+0xbb1>
    31da:	48 8d 3d 00 00 00 00 	lea    0x0(%rip),%rdi        # 31e1 <__stubDIVINT+0xbb8>
    31e1:	e8 00 00 00 00       	callq  31e6 <__stubDIVINT+0xbbd>
    31e6:	ba f8 04 00 00       	mov    $0x4f8,%edx
    31eb:	48 8d 35 00 00 00 00 	lea    0x0(%rip),%rsi        # 31f2 <__stubDIVINT+0xbc9>
    31f2:	48 8d 3d 00 00 00 00 	lea    0x0(%rip),%rdi        # 31f9 <__stubDIVINT+0xbd0>
    31f9:	e8 00 00 00 00       	callq  31fe <__stubDIVINT+0xbd5>
    31fe:	ba a6 05 00 00       	mov    $0x5a6,%edx
    3203:	48 8d 35 00 00 00 00 	lea    0x0(%rip),%rsi        # 320a <__stubDIVINT+0xbe1>
    320a:	48 8d 3d 00 00 00 00 	lea    0x0(%rip),%rdi        # 3211 <__stubDIVINT+0xbe8>
    3211:	e8 00 00 00 00       	callq  3216 <__stubDIVINT+0xbed>
    3216:	ba 9c 05 00 00       	mov    $0x59c,%edx
    321b:	48 8d 35 00 00 00 00 	lea    0x0(%rip),%rsi        # 3222 <__stubDIVINT+0xbf9>
    3222:	48 8d 3d 00 00 00 00 	lea    0x0(%rip),%rdi        # 3229 <__stubDIVINT+0xc00>
    3229:	e8 00 00 00 00       	callq  322e <__stubDIVINT+0xc05>
    322e:	ba e6 04 00 00       	mov    $0x4e6,%edx
    3233:	48 8d 35 00 00 00 00 	lea    0x0(%rip),%rsi        # 323a <__stubDIVINT+0xc11>
    323a:	48 8d 3d 00 00 00 00 	lea    0x0(%rip),%rdi        # 3241 <__stubDIVINT+0xc18>
    3241:	e8 00 00 00 00       	callq  3246 <__stubDIVINT+0xc1d>
    3246:	66 2e 0f 1f 84 00 00 	nopw   %cs:0x0(%rax,%rax,1)
    324d:	00 00 00 
    3250:	48 8b 84 24 48 01 00 	mov    0x148(%rsp),%rax
    3257:	00 
    3258:	48 01 43 08          	add    %rax,0x8(%rbx)
    325c:	48 83 ed 18          	sub    $0x18,%rbp
    3260:	48 8b 44 24 18       	mov    0x18(%rsp),%rax
    3265:	4c 89 7d 00          	mov    %r15,0x0(%rbp)
    3269:	48 89 45 08          	mov    %rax,0x8(%rbp)
    326d:	48 8b 84 24 80 00 00 	mov    0x80(%rsp),%rax
    3274:	00 
    3275:	48 89 45 10          	mov    %rax,0x10(%rbp)
    3279:	49 8b 54 24 20       	mov    0x20(%r12),%rdx
    327e:	48 89 2a             	mov    %rbp,(%rdx)
    3281:	e8 00 00 00 00       	callq  3286 <__stubDIVINT+0xc5d>
    3286:	49 8b 54 24 20       	mov    0x20(%r12),%rdx
    328b:	48 8b 2a             	mov    (%rdx),%rbp
    328e:	48 8b 45 08          	mov    0x8(%rbp),%rax
    3292:	4c 8b 7d 00          	mov    0x0(%rbp),%r15
    3296:	48 83 c5 18          	add    $0x18,%rbp
    329a:	48 89 44 24 18       	mov    %rax,0x18(%rsp)
    329f:	48 8b 84 24 40 01 00 	mov    0x140(%rsp),%rax
    32a6:	00 
    32a7:	48 01 43 08          	add    %rax,0x8(%rbx)
    32ab:	e9 e8 f0 ff ff       	jmpq   2398 <__stubMAKEFLOATBLOCK+0x73>
    32b0:	ba 43 06 00 00       	mov    $0x643,%edx
    32b5:	48 8d 35 00 00 00 00 	lea    0x0(%rip),%rsi        # 32bc <__stubDIVINT+0xc93>
    32bc:	48 8d 3d 00 00 00 00 	lea    0x0(%rip),%rdi        # 32c3 <__stubDIVINT+0xc9a>
    32c3:	e8 00 00 00 00       	callq  32c8 <__stubDIVINT+0xc9f>
    32c8:	ba fd 07 00 00       	mov    $0x7fd,%edx
    32cd:	48 8d 35 00 00 00 00 	lea    0x0(%rip),%rsi        # 32d4 <__stubDIVINT+0xcab>
    32d4:	48 8d 3d 00 00 00 00 	lea    0x0(%rip),%rdi        # 32db <__stubDIVINT+0xcb2>
    32db:	e8 00 00 00 00       	callq  32e0 <__stubDIVINT+0xcb7>
    32e0:	ba c1 05 00 00       	mov    $0x5c1,%edx
    32e5:	48 8d 35 00 00 00 00 	lea    0x0(%rip),%rsi        # 32ec <__stubDIVINT+0xcc3>
    32ec:	48 8d 3d 00 00 00 00 	lea    0x0(%rip),%rdi        # 32f3 <__stubDIVINT+0xcca>
    32f3:	e8 00 00 00 00       	callq  32f8 <__stubDIVINT+0xccf>
    32f8:	0f 1f 84 00 00 00 00 	nopl   0x0(%rax,%rax,1)
    32ff:	00 
    3300:	4c 8b 64 24 78       	mov    0x78(%rsp),%r12
    3305:	e9 0e d3 ff ff       	jmpq   618 <__stubPUSH+0xe>
    330a:	48 8b 44 24 18       	mov    0x18(%rsp),%rax
    330f:	4d 8d 4c 24 08       	lea    0x8(%r12),%r9
    3314:	48 8d 55 f8          	lea    -0x8(%rbp),%rdx
    3318:	4c 89 4d 00          	mov    %r9,0x0(%rbp)
    331c:	48 89 45 f8          	mov    %rax,-0x8(%rbp)
    3320:	48 8b 44 24 08       	mov    0x8(%rsp),%rax
    3325:	48 8b 40 20          	mov    0x20(%rax),%rax
    3329:	48 89 10             	mov    %rdx,(%rax)
    332c:	e8 00 00 00 00       	callq  3331 <__stubDIVINT+0xd08>
    3331:	ba 8c 05 00 00       	mov    $0x58c,%edx
    3336:	48 8d 35 00 00 00 00 	lea    0x0(%rip),%rsi        # 333d <__stubDIVINT+0xd14>
    333d:	48 8d 3d 00 00 00 00 	lea    0x0(%rip),%rdi        # 3344 <__stubDIVINT+0xd1b>
    3344:	e8 00 00 00 00       	callq  3349 <__stubDIVINT+0xd20>
    3349:	0f 1f 80 00 00 00 00 	nopl   0x0(%rax)
    3350:	48 8b 84 24 30 01 00 	mov    0x130(%rsp),%rax
    3357:	00 
    3358:	49 01 44 24 08       	add    %rax,0x8(%r12)
    335d:	48 83 ed 18          	sub    $0x18,%rbp
    3361:	48 8b 44 24 18       	mov    0x18(%rsp),%rax
    3366:	4c 89 7d 00          	mov    %r15,0x0(%rbp)
    336a:	48 89 45 08          	mov    %rax,0x8(%rbp)
    336e:	48 8b 44 24 78       	mov    0x78(%rsp),%rax
    3373:	48 89 45 10          	mov    %rax,0x10(%rbp)
    3377:	48 8b 4b 20          	mov    0x20(%rbx),%rcx
    337b:	48 89 29             	mov    %rbp,(%rcx)
    337e:	e8 00 00 00 00       	callq  3383 <__stubDIVINT+0xd5a>
    3383:	48 8b 4b 20          	mov    0x20(%rbx),%rcx
    3387:	48 8b 29             	mov    (%rcx),%rbp
    338a:	48 8b 45 08          	mov    0x8(%rbp),%rax
    338e:	4c 8b 7d 00          	mov    0x0(%rbp),%r15
    3392:	48 83 c5 18          	add    $0x18,%rbp
    3396:	48 89 44 24 18       	mov    %rax,0x18(%rsp)
    339b:	48 8b 84 24 28 01 00 	mov    0x128(%rsp),%rax
    33a2:	00 
    33a3:	49 01 44 24 08       	add    %rax,0x8(%r12)
    33a8:	e9 d1 e4 ff ff       	jmpq   187e <__stubMAKEBLOCK+0x87>
    33ad:	ba 8c 05 00 00       	mov    $0x58c,%edx
    33b2:	48 8d 35 00 00 00 00 	lea    0x0(%rip),%rsi        # 33b9 <__stubDIVINT+0xd90>
    33b9:	48 8d 3d 00 00 00 00 	lea    0x0(%rip),%rdi        # 33c0 <__stubDIVINT+0xd97>
    33c0:	e8 00 00 00 00       	callq  33c5 <__stubDIVINT+0xd9c>
